ARM Linker, 4.1 [Build 894] [Professional (MDK + RL-ARM)]

==============================================================================

Section Cross References

    main.o(.text) refers to os_task.o(.text) for OSTaskCreate
    main.o(.text) refers to stm32f4xx_gpio.o(.text) for GPIO_ToggleBits
    main.o(.text) refers to os_time.o(.text) for OSTimeDly
    main.o(.text) refers to bsp_global.o(.text) for BSP_Init
    main.o(.text) refers to appconfig.o(.text) for SCInit
    main.o(.text) refers to os_core.o(.text) for OSInit
    main.o(.text) refers to system_stm32f4xx.o(.data) for SystemCoreClock
    main.o(.text) refers to task_main.o(.bss) for Stk_Task_Main
    main.o(.text) refers to task_main.o(.text) for Task_Main
    main.o(.text) refers to task_can1.o(.bss) for Stk_Task_CO_EB
    main.o(.text) refers to task_can1.o(.text) for Task_CO_EB_Slave
    main.o(.text) refers to task_ltc.o(.bss) for Stk_Task_LTC
    main.o(.text) refers to task_ltc.o(.text) for Task_LTC
    main.o(.text) refers to task_can2.o(.bss) for Stk_Task_CAN_Send
    main.o(.text) refers to task_can2.o(.text) for Task_CANSend
    main.o(.text) refers to main.o(.data) for main_loop_count
    main.o(.text) refers to main.o(.bss) for Stk_TaskStartUp
    appbmu.o(.text) refers to memseta.o(.text) for __aeabi_memclr4
    appbmu.o(.text) refers to memcpya.o(.text) for __aeabi_memcpy4
    appbmu.o(.text) refers to appbmu.o(.bss) for bmu
    appbmu.o(.text) refers to appbmu.o(.constdata) for .constdata
    appbmu.o(.text) refers to systick.o(.text) for isDelayExp
    appbmu.o(.text) refers to uldiv.o(.text) for __aeabi_uldivmod
    appbmu.o(.text) refers to task_main.o(.bss) for sysInfo
    appbmu.o(.text) refers to appbmu.o(.data) for SOC_OCV_AjuestAllowed
    appbmu.o(.text) refers to task_main.o(.data) for vcuInfo
    appbmu.o(.text) refers to main.o(.bss) for gSysCfg
    task_can1.o(.text) refers to os_sem.o(.text) for OSSemCreate
    task_can1.o(.text) refers to eb_framework.o(.text) for ebFrameworkInit
    task_can1.o(.text) refers to co_battery.o(.text) for batApplInit
    task_can1.o(.text) refers to os_time.o(.text) for OSTimeDlyHMSM
    task_can1.o(.text) refers to co_commtask.o(.text) for coCommTask
    task_can1.o(.text) refers to codrv_cpu_generic.o(.text) for codrvTimerISR
    task_can1.o(.text) refers to task_can1.o(.data) for sem_CAN1_rec_flag
    task_adc.o(.text) refers to dfltui.o(.text) for __aeabi_ui2d
    task_adc.o(.text) refers to dmul.o(.text) for __aeabi_dmul
    task_adc.o(.text) refers to ddiv.o(.text) for __aeabi_ddiv
    task_adc.o(.text) refers to d2f.o(.text) for __aeabi_d2f
    task_adc.o(.text) refers to stm32f4xx_dma.o(.text) for DMA_Cmd
    task_adc.o(.text) refers to stm32f4xx_adc.o(.text) for ADC_SoftwareStartConv
    task_adc.o(.text) refers to task_adc.o(.data) for temp_table_JT103
    task_adc.o(.text) refers to task_adc.o(.bss) for ad_res
    task_adc.o(.text) refers to bsp_adc.o(.data) for ADC_dma_ready_flag
    task_adc.o(.text) refers to bsp_adc.o(.bss) for ADC_REV_Instant
    task_avchg.o(.text) refers to memcpya.o(.text) for __aeabi_memcpy4
    task_avchg.o(.text) refers to bsp_sci.o(.text) for U4_Send
    task_avchg.o(.text) refers to os_sem.o(.text) for OSSemCreate
    task_avchg.o(.text) refers to bsp_sci.o(.data) for U4_rec_counter
    task_avchg.o(.text) refers to bsp_sci.o(.bss) for U4_buff
    task_avchg.o(.text) refers to task_avchg.o(.constdata) for .constdata
    task_avchg.o(.text) refers to dma.o(.bss) for U4_send_data
    task_avchg.o(.text) refers to task_avchg.o(.data) for sem_U4_rec_flag
    task_eflash.o(.text) refers to sst25vf016b.o(.text) for SSTF016B_Erase
    task_eflash.o(.text) refers to flashdriver.o(.text) for df_write_open
    task_eflash.o(.text) refers to stm32f4xx_gpio.o(.text) for GPIO_SetBits
    task_eflash.o(.text) refers to os_time.o(.text) for OSTimeDlyHMSM
    task_eflash.o(.text) refers to task_main.o(.bss) for sysInfo
    task_eflash.o(.text) refers to appbmu.o(.bss) for bmu
    task_eflash.o(.text) refers to main.o(.bss) for gSysCfg
    appconfig.o(.text) refers to stm32f4xx_gpio.o(.text) for GPIO_SetBits
    appconfig.o(.text) refers to flashdriver.o(.text) for df_read_open
    appconfig.o(.text) refers to stm32f4xx_spi.o(.text) for SPI_I2S_ITConfig
    appconfig.o(.text) refers to appbmu.o(.text) for bmuInit
    appconfig.o(.text) refers to task_main.o(.bss) for sysInfo
    appconfig.o(.text) refers to main.o(.bss) for gSysCfg
    appconfig.o(.text) refers to task_main.o(.data) for vcuInfo
    appconfig.o(.text) refers to os_core.o(.data) for OSTime
    task_main.o(.text) refers to stm32f4xx_gpio.o(.text) for GPIO_SetBits
    task_main.o(.text) refers to appbmu.o(.text) for TCTableInit
    task_main.o(.text) refers to os_time.o(.text) for OSTimeDlyHMSM
    task_main.o(.text) refers to bsp_wdg.o(.text) for wdg_feed
    task_main.o(.text) refers to task_main.o(.constdata) for .constdata
    task_main.o(.text) refers to task_main.o(.data) for tskmain_lpcnt
    task_main.o(.text) refers to appbmu.o(.bss) for bmu
    task_main.o(.text) refers to task_main.o(.bss) for sysInfo
    task_syscheck.o(.text) refers to os_sem.o(.text) for OSSemCreate
    task_syscheck.o(.text) refers to os_time.o(.text) for OSTimeDlyHMSM
    task_syscheck.o(.text) refers to task_adc.o(.text) for Task_ADC
    task_syscheck.o(.text) refers to systick.o(.text) for timeDiff
    task_syscheck.o(.text) refers to appbmu.o(.text) for strTCCheck
    task_syscheck.o(.text) refers to task_syscheck.o(.data) for sem_vcu_can_rev
    task_syscheck.o(.text) refers to task_main.o(.bss) for sysInfo
    task_syscheck.o(.text) refers to os_core.o(.data) for OSTime
    task_syscheck.o(.text) refers to appbmu.o(.bss) for bmu
    task_wifi.o(.text) refers to os_time.o(.text) for OSTimeDly
    task_wifi.o(.text) refers to bsp_wifi.o(.text) for wifiInit
    task_wifi.o(.text) refers to task_wifi.o(.data) for lp_cnt
    co_battery.o(.text) refers to eb_indication.o(.text) for ebRegister_NMT
    co_battery.o(.text) refers to eb_battery.o(.text) for ebRegister_BAT_STATE
    co_battery.o(.text) refers to eb_framework.o(.bss) for ebData
    co_battery.o(.text) refers to eb_battery.o(.bss) for ebBatData
    co_battery.o(.text) refers to usr_ind.o(.text) for indNmt
    co_battery.o(.text) refers to eb_eeprom.o(.text) for ebRegister_EEPROM
    task_ltc.o(.text) refers to stm32f4xx_spi.o(.text) for SPI_I2S_SendData
    task_ltc.o(.text) refers to task_adc.o(.text) for lookUpTable
    task_ltc.o(.text) refers to eb_battery.o(.text) for fillEBBattVoltage
    task_ltc.o(.text) refers to os_time.o(.text) for OSTimeDly
    task_ltc.o(.text) refers to stm32f4xx_gpio.o(.text) for GPIO_ResetBits
    task_ltc.o(.text) refers to task_ltc.o(.bss) for pec15Table
    task_ltc.o(.text) refers to task_adc.o(.data) for temp_table_JT103
    task_ltc.o(.text) refers to appbmu.o(.bss) for bmu
    task_ltc.o(.text) refers to task_ltc.o(.data) for pec16
    task_ltc.o(.text) refers to systick.o(.text) for timeDiff
    task_ltc.o(.text) refers to os_core.o(.data) for OSTime
    task_can2.o(.text) refers to os_sem.o(.text) for OSSemCreate
    task_can2.o(.text) refers to os_time.o(.text) for OSTimeDly
    task_can2.o(.text) refers to stm32f4xx_can.o(.text) for CAN_Transmit
    task_can2.o(.text) refers to task_eflash.o(.text) for NVM_SysinfoWrite
    task_can2.o(.text) refers to memcpya.o(.text) for __aeabi_memcpy4
    task_can2.o(.text) refers to task_can2.o(.data) for sem_CAN2_send_flag
    task_can2.o(.text) refers to bsp_can.o(.data) for C2_wait_num
    task_can2.o(.text) refers to bsp_can.o(.bss) for CAN2TxBuf
    task_can2.o(.text) refers to appbmu.o(.bss) for bmu
    task_can2.o(.text) refers to task_main.o(.bss) for sysInfo
    task_can2.o(.text) refers to task_syscheck.o(.data) for sem_fault_clr
    bsp_global.o(.text) refers to nvic.o(.text) for NVIC_Configuration
    bsp_global.o(.text) refers to bsp_gpio.o(.text) for DIO_Configuration
    bsp_global.o(.text) refers to bsp_can.o(.text) for CAN1_Configuration
    bsp_global.o(.text) refers to sst25vf016b.o(.text) for SPI_LTC_Init
    bsp_global.o(.text) refers to stm32f4xx_rcc.o(.text) for RCC_AHB2PeriphClockCmd
    bsp_global.o(.text) refers to stm32f4xx_rng.o(.text) for RNG_Cmd
    bsp_global.o(.text) refers to bsp_wdg.o(.text) for WDG_Init
    bsp_global.o(.text) refers to stm32f4xx_gpio.o(.text) for GPIO_SetBits
    nvic.o(.text) refers to misc.o(.text) for NVIC_PriorityGroupConfig
    24c02.o(.text) refers to stm32f4xx_rcc.o(.text) for RCC_APB1PeriphClockCmd
    24c02.o(.text) refers to stm32f4xx_i2c.o(.text) for I2C_Init
    bsp_gpio.o(.text) refers to stm32f4xx_rcc.o(.text) for RCC_AHB1PeriphClockCmd
    bsp_gpio.o(.text) refers to stm32f4xx_gpio.o(.text) for GPIO_Init
    bsp_can.o(.text) refers to stm32f4xx_rcc.o(.text) for RCC_AHB1PeriphClockCmd
    bsp_can.o(.text) refers to stm32f4xx_gpio.o(.text) for GPIO_Init
    bsp_can.o(.text) refers to stm32f4xx_can.o(.text) for CAN_DeInit
    bsp_can.o(.text) refers to os_cpu_a.o(.text) for OS_CPU_SR_Save
    bsp_can.o(.text) refers to codrv_can_generic.o(.text) for codrvCanReceiveInterrupt
    bsp_can.o(.text) refers to os_sem.o(.text) for OSSemPost
    bsp_can.o(.text) refers to os_core.o(.text) for OSIntExit
    bsp_can.o(.text) refers to memcpya.o(.text) for __aeabi_memcpy4
    bsp_can.o(.text) refers to bsp_can.o(.constdata) for CAN_baud_table
    bsp_can.o(.text) refers to os_core.o(.data) for OSIntNesting
    bsp_can.o(.text) refers to bsp_can.o(.bss) for CAN1RxMsg
    bsp_can.o(.text) refers to bsp_can.o(.data) for can1_rec_flag
    bsp_can.o(.text) refers to task_can1.o(.data) for sem_CAN1_rec_flag
    bsp_adc.o(.text) refers to stm32f4xx_rcc.o(.text) for RCC_AHB1PeriphClockCmd
    bsp_adc.o(.text) refers to stm32f4xx_gpio.o(.text) for GPIO_Init
    bsp_adc.o(.text) refers to stm32f4xx_dma.o(.text) for DMA_DeInit
    bsp_adc.o(.text) refers to stm32f4xx_adc.o(.text) for ADC_CommonInit
    bsp_adc.o(.text) refers to bsp_adc.o(.bss) for ADC_REV_Instant
    bsp_adc.o(.text) refers to bsp_adc.o(.data) for ADC_dma_ready_flag
    bsp_sci.o(.text) refers to stm32f4xx_rcc.o(.text) for RCC_AHB1PeriphClockCmd
    bsp_sci.o(.text) refers to stm32f4xx_usart.o(.text) for USART_DeInit
    bsp_sci.o(.text) refers to stm32f4xx_gpio.o(.text) for GPIO_Init
    bsp_sci.o(.text) refers to misc.o(.text) for NVIC_Init
    bsp_sci.o(.text) refers to os_cpu_a.o(.text) for OS_CPU_SR_Save
    bsp_sci.o(.text) refers to os_core.o(.text) for OSIntExit
    bsp_sci.o(.text) refers to stm32f4xx_dma.o(.text) for DMA_SetCurrDataCounter
    bsp_sci.o(.text) refers to os_sem.o(.text) for OSSemPost
    bsp_sci.o(.text) refers to bsp_sci.o(.data) for NVIC_InitStructure
    bsp_sci.o(.text) refers to os_core.o(.data) for OSIntNesting
    bsp_sci.o(.text) refers to dma.o(.data) for RS232_dma_send_flag
    bsp_sci.o(.text) refers to task_avchg.o(.data) for sem_U4_rec_flag
    bsp_sci.o(.text) refers to bsp_sci.o(.bss) for U4_buff
    dma.o(.text) refers to stm32f4xx_rcc.o(.text) for RCC_AHB1PeriphClockCmd
    dma.o(.text) refers to stm32f4xx_dma.o(.text) for DMA_DeInit
    dma.o(.text) refers to bsp_sci.o(.bss) for RS232_buff
    dma.o(.text) refers to dma.o(.bss) for RS232_send_data
    dma.o(.text) refers to dma.o(.data) for RS232_dma_send_flag
    flashdriver.o(.text) refers to sst25vf016b.o(.text) for SSTF016B_RD
    flashdriver.o(.text) refers to flashdriver.o(.data) for CurReadAddr
    sst25vf016b.o(.text) refers to stm32f4xx_spi.o(.text) for SPI_I2S_DeInit
    sst25vf016b.o(.text) refers to stm32f4xx_rcc.o(.text) for RCC_APB1PeriphClockCmd
    sst25vf016b.o(.text) refers to stm32f4xx_gpio.o(.text) for GPIO_PinAFConfig
    sst25vf016b.o(.text) refers to task_ltc.o(.text) for insertByteToBuffer
    sst25vf016b.o(.text) refers to task_ltc.o(.bss) for spi1RevBuf
    bsp_wdg.o(.text) refers to stm32f4xx_rcc.o(.text) for RCC_ClearFlag
    bsp_wdg.o(.text) refers to stm32f4xx_iwdg.o(.text) for IWDG_WriteAccessCmd
    bsp_wifi.o(.text) refers to strncmp.o(.text) for strncmp
    bsp_wifi.o(.text) refers to os_core.o(.text) for OSIntEnter
    bsp_wifi.o(.text) refers to stm32f4xx_usart.o(.text) for USART_GetITStatus
    bsp_wifi.o(.text) refers to os_time.o(.text) for OSTimeDlyHMSM
    bsp_wifi.o(.text) refers to strlen.o(.text) for strlen
    bsp_wifi.o(.text) refers to printf5.o(i.__0sprintf$5) for __2sprintf
    bsp_wifi.o(.text) refers to bsp_wifi.o(.data) for RecvLen
    bsp_wifi.o(.text) refers to bsp_wifi.o(.bss) for RecvBUF
    stm32f4xx_adc.o(.text) refers to stm32f4xx_rcc.o(.text) for RCC_APB2PeriphResetCmd
    stm32f4xx_can.o(.text) refers to stm32f4xx_rcc.o(.text) for RCC_APB1PeriphResetCmd
    stm32f4xx_cryp.o(.text) refers to stm32f4xx_rcc.o(.text) for RCC_AHB2PeriphResetCmd
    stm32f4xx_cryp_aes.o(.text) refers to stm32f4xx_cryp.o(.text) for CRYP_KeyStructInit
    stm32f4xx_cryp_des.o(.text) refers to stm32f4xx_cryp.o(.text) for CRYP_KeyStructInit
    stm32f4xx_cryp_tdes.o(.text) refers to stm32f4xx_cryp.o(.text) for CRYP_KeyStructInit
    stm32f4xx_dac.o(.text) refers to stm32f4xx_rcc.o(.text) for RCC_APB1PeriphResetCmd
    stm32f4xx_gpio.o(.text) refers to stm32f4xx_rcc.o(.text) for RCC_AHB1PeriphResetCmd
    stm32f4xx_hash.o(.text) refers to stm32f4xx_rcc.o(.text) for RCC_AHB2PeriphResetCmd
    stm32f4xx_hash_md5.o(.text) refers to stm32f4xx_hash.o(.text) for HASH_DeInit
    stm32f4xx_hash_sha1.o(.text) refers to stm32f4xx_hash.o(.text) for HASH_DeInit
    stm32f4xx_i2c.o(.text) refers to stm32f4xx_rcc.o(.text) for RCC_APB1PeriphResetCmd
    stm32f4xx_pwr.o(.text) refers to stm32f4xx_rcc.o(.text) for RCC_APB1PeriphResetCmd
    stm32f4xx_rcc.o(.text) refers to stm32f4xx_rcc.o(.data) for APBAHBPrescTable
    stm32f4xx_rng.o(.text) refers to stm32f4xx_rcc.o(.text) for RCC_AHB2PeriphResetCmd
    stm32f4xx_sdio.o(.text) refers to stm32f4xx_rcc.o(.text) for RCC_APB2PeriphResetCmd
    stm32f4xx_spi.o(.text) refers to stm32f4xx_rcc.o(.text) for RCC_APB2PeriphResetCmd
    stm32f4xx_syscfg.o(.text) refers to stm32f4xx_rcc.o(.text) for RCC_APB2PeriphResetCmd
    stm32f4xx_tim.o(.text) refers to stm32f4xx_rcc.o(.text) for RCC_APB2PeriphResetCmd
    stm32f4xx_usart.o(.text) refers to stm32f4xx_rcc.o(.text) for RCC_APB2PeriphResetCmd
    stm32f4xx_wwdg.o(.text) refers to stm32f4xx_rcc.o(.text) for RCC_APB1PeriphResetCmd
    startup_stm32f4xx.o(RESET) refers to startup_stm32f4xx.o(STACK) for __initial_sp
    startup_stm32f4xx.o(RESET) refers to startup_stm32f4xx.o(.text) for Reset_Handler
    startup_stm32f4xx.o(RESET) refers to os_cpu_a.o(.text) for OS_CPU_PendSVHandler
    startup_stm32f4xx.o(RESET) refers to os_cpu_c.o(.text) for OS_CPU_SysTickHandler
    startup_stm32f4xx.o(RESET) refers to bsp_can.o(.text) for CAN1_RX0_IRQHandler
    startup_stm32f4xx.o(RESET) refers to timer.o(.text) for TIM3_IRQHandler
    startup_stm32f4xx.o(RESET) refers to sst25vf016b.o(.text) for SPI2_IRQHandler
    startup_stm32f4xx.o(RESET) refers to bsp_wifi.o(.text) for USART1_IRQHandler
    startup_stm32f4xx.o(RESET) refers to bsp_sci.o(.text) for UART4_IRQHandler
    startup_stm32f4xx.o(RESET) refers to bsp_adc.o(.text) for DMA2_Stream0_IRQHandler
    startup_stm32f4xx.o(RESET) refers to dma.o(.text) for DMA2_Stream4_IRQHandler
    startup_stm32f4xx.o(.text) refers to system_stm32f4xx.o(.text) for SystemInit
    startup_stm32f4xx.o(.text) refers to entry.o(.ARM.Collect$$$$00000000) for __main
    system_stm32f4xx.o(.text) refers to system_stm32f4xx.o(.data) for SystemCoreClock
    os_cpu_a.o(.text) refers to os_core.o(.data) for OSRunning
    os_cpu_a.o(.text) refers to os_cpu_c.o(.text) for OSTaskSwHook
    os_cpu_c.o(.text) refers to os_cpu_a.o(.text) for CPU_IntDisable
    os_cpu_c.o(.text) refers to os_core.o(.text) for OSTimeTick
    os_cpu_c.o(.text) refers to os_task.o(.text) for OS_TaskReturn
    os_cpu_c.o(.text) refers to os_core.o(.data) for OSIntNesting
    os_core.o(.text) refers to os_cpu_a.o(.text) for OS_CPU_SR_Save
    os_core.o(.text) refers to os_core.o(.data) for OSIntNesting
    os_core.o(.text) refers to os_core.o(.constdata) for OSUnMapTbl
    os_core.o(.text) refers to os_core.o(.bss) for OSTCBPrioTbl
    os_core.o(.text) refers to os_task.o(.text) for OSTaskStkChk
    os_core.o(.text) refers to os_time.o(.text) for OSTimeDly
    os_core.o(.text) refers to os_cpu_c.o(.text) for OSTaskStatHook
    os_core.o(.text) refers to os_flag.o(.text) for OS_FlagInit
    os_core.o(.text) refers to os_mem.o(.text) for OS_MemInit
    os_core.o(.text) refers to os_q.o(.text) for OS_QInit
    os_flag.o(.text) refers to os_cpu_a.o(.text) for OS_CPU_SR_Save
    os_flag.o(.text) refers to os_core.o(.text) for OS_Sched
    os_flag.o(.text) refers to os_core.o(.data) for OSIntNesting
    os_flag.o(.text) refers to os_core.o(.bss) for OSFlagTbl
    os_mbox.o(.text) refers to os_cpu_a.o(.text) for OS_CPU_SR_Save
    os_mbox.o(.text) refers to os_core.o(.text) for OS_EventWaitListInit
    os_mbox.o(.text) refers to os_core.o(.data) for OSIntNesting
    os_mem.o(.text) refers to os_cpu_a.o(.text) for OS_CPU_SR_Save
    os_mem.o(.text) refers to os_core.o(.text) for OS_StrLen
    os_mem.o(.text) refers to os_core.o(.data) for OSMemFreeList
    os_mem.o(.text) refers to os_core.o(.bss) for OSMemTbl
    os_mutex.o(.text) refers to os_cpu_a.o(.text) for OS_CPU_SR_Save
    os_mutex.o(.text) refers to os_core.o(.text) for OS_EventWaitListInit
    os_mutex.o(.text) refers to os_core.o(.data) for OSIntNesting
    os_mutex.o(.text) refers to os_core.o(.bss) for OSTCBPrioTbl
    os_q.o(.text) refers to os_cpu_a.o(.text) for OS_CPU_SR_Save
    os_q.o(.text) refers to os_core.o(.text) for OS_EventWaitListInit
    os_q.o(.text) refers to os_core.o(.data) for OSIntNesting
    os_q.o(.text) refers to os_core.o(.bss) for OSQTbl
    os_sem.o(.text) refers to os_cpu_a.o(.text) for OS_CPU_SR_Save
    os_sem.o(.text) refers to os_core.o(.text) for OS_EventWaitListInit
    os_sem.o(.text) refers to os_core.o(.data) for OSIntNesting
    os_task.o(.text) refers to os_cpu_a.o(.text) for OS_CPU_SR_Save
    os_task.o(.text) refers to os_core.o(.text) for OS_Sched
    os_task.o(.text) refers to os_cpu_c.o(.text) for OSTaskStkInit
    os_task.o(.text) refers to os_flag.o(.text) for OS_FlagUnlink
    os_task.o(.text) refers to os_core.o(.bss) for OSTCBPrioTbl
    os_task.o(.text) refers to os_core.o(.data) for OSTCBCur
    os_time.o(.text) refers to os_cpu_a.o(.text) for OS_CPU_SR_Save
    os_time.o(.text) refers to os_core.o(.text) for OS_Sched
    os_time.o(.text) refers to os_core.o(.data) for OSIntNesting
    os_time.o(.text) refers to os_core.o(.bss) for OSTCBPrioTbl
    systick.o(.text) refers to os_time.o(.text) for OSTimeGet
    systick.o(.text) refers to system_stm32f4xx.o(.data) for SystemCoreClock
    systick.o(.text) refers to systick.o(.data) for TimingDelay
    timer.o(.text) refers to stm32f4xx_rcc.o(.text) for RCC_APB1PeriphClockCmd
    timer.o(.text) refers to stm32f4xx_tim.o(.text) for TIM_TimeBaseInit
    timer.o(.text) refers to system_stm32f4xx.o(.data) for SystemCoreClock
    timer.o(.text) refers to timer.o(.data) for CCR1_Val
    co_cobhandler.o(.text) refers to co_queue.o(.text) for icoQueueDeleteInhibit
    co_cobhandler.o(.text) refers to co_cobhandler.o(.data) for cobRefCnt
    co_cobhandler.o(.text) refers to co_cobhandler.o(.bss) for cobData
    co_cobhandler.o(.text) refers to co_cobhandler.o(.constdata) for restrictCobs
    co_commtask.o(.text) refers to co_queue.o(.text) for icoQueueGetReceiveMessage
    co_commtask.o(.text) refers to co_nmt.o(.text) for icoNmtMsgHandler
    co_commtask.o(.text) refers to co_sync.o(.text) for icoSyncHandler
    co_commtask.o(.text) refers to co_errctrl.o(.text) for icoNmtErrorCtrlHandler
    co_commtask.o(.text) refers to co_sdoserv.o(.text) for icoSdoServerHandler
    co_commtask.o(.text) refers to co_pdo.o(.text) for icoPdoRtrHandler
    co_commtask.o(.text) refers to co_lss.o(.text) for icoLssHandler
    co_commtask.o(.text) refers to co_sleep.o(.text) for icoSleepMsgHandler
    co_commtask.o(.text) refers to co_timer.o(.text) for icoTimerCheck
    co_commtask.o(.text) refers to co_event.o(.text) for icoEventCheck
    co_commtask.o(.text) refers to codrv_can_generic.o(.text) for codrvCanDriverHandler
    co_commtask.o(.text) refers to co_commtask.o(.data) for eventFlagMsg
    co_commtask.o(.text) refers to co_commtask.o(.constdata) for commTable
    co_emcy.o(.text) refers to co_odaccess.o(.text) for coOdGetObjAddr
    co_emcy.o(.text) refers to co_nmt.o(.text) for coNmtGetState
    co_emcy.o(.text) refers to co_queue.o(.text) for icoTransmitMessage
    co_emcy.o(.text) refers to co_cobhandler.o(.text) for icoCheckRestrictedCobs
    co_emcy.o(.text) refers to co_emcy.o(.data) for emcyCob
    co_errctrl.o(.text) refers to co_timer.o(.text) for coTimerStop
    co_errctrl.o(.text) refers to co_cobhandler.o(.text) for icoCobSet
    co_errctrl.o(.text) refers to co_nmt.o(.text) for coNmtGetNodeId
    co_errctrl.o(.text) refers to co_emcy.o(.text) for icoEmcyWriteReq
    co_errctrl.o(.text) refers to co_queue.o(.text) for icoTransmitMessage
    co_errctrl.o(.text) refers to co_errctrl.o(.bss) for hbConsumer
    co_errctrl.o(.text) refers to co_errctrl.o(.data) for errorBehavior
    co_errctrl.o(.text) refers to co_odaccess.o(.text) for coOdGetDefaultVal_u16
    co_event.o(.text) refers to co_commtask.o(.text) for coCommTaskSet
    co_event.o(.text) refers to co_event.o(.data) for pCoEvent
    co_lss.o(.text) refers to co_odaccess.o(.text) for coOdGetObj_u32
    co_lss.o(.text) refers to co_queue.o(.text) for icoTransmitMessage
    co_lss.o(.text) refers to co_timer.o(.text) for coTimerStop
    co_lss.o(.text) refers to co_nmt.o(.text) for coNmtGetNodeId
    co_lss.o(.text) refers to co_lss.o(.data) for nextCmd
    co_lss.o(.text) refers to co_lss.o(.bss) for vendor
    co_lss.o(.text) refers to co_cobhandler.o(.text) for icoCobSet
    co_lss.o(.text) refers to co_lss.o(.constdata) for bitTable
    co_nmt.o(.text) refers to co_pdo.o(.text) for icoPdoOperational
    co_nmt.o(.text) refers to co_cobhandler.o(.text) for icoCobSet
    co_nmt.o(.text) refers to co_sleep.o(.text) for icoSleepReset
    co_nmt.o(.text) refers to co_lss.o(.text) for icoLssReset
    co_nmt.o(.text) refers to co_odaccess.o(.text) for icoOdReset
    co_nmt.o(.text) refers to co_sdoserv.o(.text) for icoSdoServerSetDefaultValue
    co_nmt.o(.text) refers to co_errctrl.o(.text) for icoErrorCtrlSetDefaultValue
    co_nmt.o(.text) refers to co_sync.o(.text) for icoSyncSetDefaultValue
    co_nmt.o(.text) refers to co_emcy.o(.text) for icoEmcyProducerSetDefaultValue
    co_nmt.o(.text) refers to co_store.o(.text) for icoStoreLoadReq
    co_nmt.o(.text) refers to co_event.o(.text) for icoEventInit
    co_nmt.o(.text) refers to co_queue.o(.text) for coQueueInit
    co_nmt.o(.text) refers to co_nmt.o(.data) for nmtState
    co_nmtmaster.o(.text) refers to co_nmt.o(.text) for icoNmtGetCob
    co_nmtmaster.o(.text) refers to co_queue.o(.text) for icoTransmitMessage
    co_nmtmaster.o(.text) refers to co_errctrl.o(.text) for coNmtGetRemoteNodeState
    co_nmtmaster.o(.text) refers to co_cobhandler.o(.text) for icoCobSetInhibit
    co_nmtmaster.o(.text) refers to co_odaccess.o(.text) for coOdGetDefaultVal_u16
    co_nmtmaster.o(.text) refers to co_nmtmaster.o(.data) for nmtMasterState
    co_odaccess.o(.text) refers to memcpya.o(.text) for __aeabi_memcpy
    co_odaccess.o(.text) refers to co_sdoserv.o(.text) for icoSdoObjChanged
    co_odaccess.o(.text) refers to co_pdo.o(.text) for icoTrPdoObjChanged
    co_odaccess.o(.text) refers to co_errctrl.o(.text) for icoErrCtrlObjChanged
    co_odaccess.o(.text) refers to co_sync.o(.text) for icoSyncObjChanged
    co_odaccess.o(.text) refers to co_emcy.o(.text) for icoEmcyObjChanged
    co_odaccess.o(.text) refers to co_odaccess.o(.data) for loadParameterState
    co_pdo.o(.text) refers to co_odaccess.o(.text) for coNumMemcpyUnpack
    co_pdo.o(.text) refers to co_queue.o(.text) for icoTransmitMessage
    co_pdo.o(.text) refers to co_nmt.o(.text) for coNmtGetState
    co_pdo.o(.text) refers to co_cobhandler.o(.text) for icoCheckRestrictedCobs
    co_pdo.o(.text) refers to co_pdo.o(.bss) for pdoTransmit
    co_pdo.o(.text) refers to co_pdo.o(.data) for pdoTrCnt
    co_pdo.o(.text) refers to co_timer.o(.text) for coTimerStop
    co_queue.o(.text) refers to co_commtask.o(.text) for coCommStateEvent
    co_queue.o(.text) refers to co_cobhandler.o(.text) for icoCobCheck
    co_queue.o(.text) refers to memcpya.o(.text) for __aeabi_memcpy4
    co_queue.o(.text) refers to co_timer.o(.text) for coTimerIsActive
    co_queue.o(.text) refers to codrv_can_generic.o(.text) for codrvCanStartTransmission
    co_queue.o(.text) refers to co_queue.o(.data) for recBufferWrCnt
    co_queue.o(.text) refers to co_queue.o(.bss) for recDataBuffer
    co_sdoserv.o(.text) refers to co_odaccess.o(.text) for coNumMemcpyUnpack
    co_sdoserv.o(.text) refers to co_queue.o(.text) for icoTransmitMessage
    co_sdoserv.o(.text) refers to co_sdoserv.o(.constdata) for abortCodeTable
    co_sdoserv.o(.text) refers to co_sdoserv.o(.data) for sdoServerReadTableCnt
    co_sdoserv.o(.text) refers to co_nmt.o(.text) for coNmtGetState
    co_sdoserv.o(.text) refers to co_sdoserv.o(.bss) for sdoServer
    co_sdoserv.o(.text) refers to co_cobhandler.o(.text) for icoCheckRestrictedCobs
    co_sdoserv.o(.text) refers to memseta.o(.text) for __aeabi_memclr4
    co_sleep.o(.text) refers to co_queue.o(.text) for icoQueueDisable
    co_sleep.o(.text) refers to co_timer.o(.text) for coTimerStart
    co_sleep.o(.text) refers to co_nmt.o(.text) for icoNmtPersistantNodeIdGet
    co_sleep.o(.text) refers to co_commtask.o(.text) for coCommTask
    co_sleep.o(.text) refers to co_cobhandler.o(.text) for icoCobSet
    co_sleep.o(.text) refers to co_sleep.o(.data) for sleepTable
    co_sleep.o(.text) refers to co_sleep.o(.bss) for sleepTimer
    co_stackinit.o(.text) refers to co_cobhandler.o(.text) for icoCobHandlerVarInit
    co_stackinit.o(.text) refers to co_commtask.o(.text) for icoCommTaskVarInit
    co_stackinit.o(.text) refers to co_emcy.o(.text) for icoEmcyVarInit
    co_stackinit.o(.text) refers to co_errctrl.o(.text) for icoErrorCtrlVarInit
    co_stackinit.o(.text) refers to co_event.o(.text) for icoEventInit
    co_stackinit.o(.text) refers to co_lss.o(.text) for icoLssVarInit
    co_stackinit.o(.text) refers to co_nmt.o(.text) for icoNmtVarInit
    co_stackinit.o(.text) refers to co_odaccess.o(.text) for icoOdAccessVarInit
    co_stackinit.o(.text) refers to co_pdo.o(.text) for icoPdoVarInit
    co_stackinit.o(.text) refers to co_queue.o(.text) for icoQueueVarInit
    co_stackinit.o(.text) refers to co_sdoserv.o(.text) for icoSdoServerVarInit
    co_stackinit.o(.text) refers to co_sleep.o(.text) for icoSleepVarInit
    co_stackinit.o(.text) refers to co_sync.o(.text) for icoSyncVarInit
    co_store.o(.text) refers to co_odaccess.o(.text) for icoOdSetLoadParaState
    co_store.o(.text) refers to co_store.o(.data) for storeLoadFunction
    co_sync.o(.text) refers to co_pdo.o(.text) for icoPdoSyncHandling
    co_sync.o(.text) refers to co_nmt.o(.text) for coNmtGetState
    co_sync.o(.text) refers to co_queue.o(.text) for icoTransmitMessage
    co_sync.o(.text) refers to co_odaccess.o(.text) for coOdGetObjDescPtr
    co_sync.o(.text) refers to co_cobhandler.o(.text) for icoCheckRestrictedCobs
    co_sync.o(.text) refers to co_timer.o(.text) for coTimerStart
    co_sync.o(.text) refers to co_sync.o(.data) for syncFinishedEventTableCnt
    co_sync.o(.text) refers to co_sync.o(.bss) for syncTimer
    co_timer.o(.text) refers to co_commtask.o(.text) for coCommTaskSet
    co_timer.o(.text) refers to co_timer.o(.data) for actTick
    codrv_can_generic.o(.text) refers to codrv_error.o(.text) for codrvCanErrorInit
    codrv_can_generic.o(.text) refers to bsp_can.o(.text) for CAN1_WriteData
    codrv_can_generic.o(.text) refers to co_queue.o(.text) for coQueueMsgTransmitted
    codrv_can_generic.o(.text) refers to co_commtask.o(.text) for coCommTaskSet
    codrv_can_generic.o(.text) refers to codrv_can_generic.o(.constdata) for codrvCanBittimingTable
    codrv_can_generic.o(.text) refers to codrv_can_generic.o(.data) for canEnabled
    codrv_cpu_generic.o(.text) refers to co_timer.o(.text) for coTimerTick
    codrv_error.o(.text) refers to co_commtask.o(.text) for coCommStateEvent
    codrv_error.o(.text) refers to codrv_error.o(.data) for canErrorFlags
    eb_battery.o(.text) refers to co_pdo.o(.text) for coPdoReqNr
    eb_battery.o(.text) refers to eb_framework.o(.bss) for ebData
    eb_battery.o(.text) refers to eb_battery.o(.data) for batCheckStateTable
    eb_battery.o(.text) refers to eb_battery.o(.constdata) for batTransTable
    eb_battery.o(.text) refers to eb_battery.o(.bss) for ebBatData
    eb_debug.o(.text) refers to printf5.o(i.__0sprintf$5) for __2sprintf
    eb_debug.o(.text) refers to strcpy.o(.text) for strcpy
    eb_debug.o(.text) refers to strcat.o(.text) for strcat
    eb_debug.o(.text) refers to eb_debug.o(.constdata) for canStateStrg
    eb_debug.o(.text) refers to eb_debug.o(.bss) for stateStrg
    eb_eeprom.o(.text) refers to eb_eeprom.o(.data) for loadTable
    eb_framework.o(.text) refers to codrv_can_generic.o(.text) for codrvCanInit
    eb_framework.o(.text) refers to eb_indication.o(.text) for iebLoadIndInit
    eb_framework.o(.text) refers to gen_objdict.o(.text) for coCanOpenStackInit
    eb_framework.o(.text) refers to codrv_cpu_generic.o(.text) for codrvTimerSetup
    eb_framework.o(.text) refers to eb_state.o(.text) for ebStateChange
    eb_framework.o(.text) refers to co_commtask.o(.text) for coCommTask
    eb_framework.o(.text) refers to co_odaccess.o(.text) for coOdSetCobid
    eb_framework.o(.text) refers to co_pdo.o(.text) for coPdoReqObj
    eb_framework.o(.text) refers to memcpya.o(.text) for __aeabi_memcpy
    eb_framework.o(.text) refers to eb_framework.o(.bss) for ebData
    eb_framework.o(.text) refers to eb_framework.o(.constdata) for pdoAssign
    eb_indication.o(.text) refers to eb_state.o(.text) for ebStateChange
    eb_indication.o(.text) refers to eb_framework.o(.text) for iebGetDevIdxFromSubIndex
    eb_indication.o(.text) refers to co_errctrl.o(.text) for coNmtGetRemoteNodeState
    eb_indication.o(.text) refers to co_nmt.o(.text) for coEventRegister_NMT
    eb_indication.o(.text) refers to co_sdoserv.o(.text) for coEventRegister_SDO_SERVER_WRITE
    eb_indication.o(.text) refers to co_sync.o(.text) for coEventRegister_SYNC
    eb_indication.o(.text) refers to co_sleep.o(.text) for coEventRegister_SLEEP
    eb_indication.o(.text) refers to co_commtask.o(.text) for coEventRegister_COMM_EVENT
    eb_indication.o(.text) refers to eb_indication.o(.data) for sleepTable
    eb_indication.o(.text) refers to eb_framework.o(.bss) for ebData
    eb_state.o(.text) refers to co_event.o(.text) for icoEventStart
    eb_state.o(.text) refers to co_nmt.o(.text) for coNmtGetNodeId
    eb_state.o(.text) refers to eb_indication.o(.text) for iebSleepInd
    eb_state.o(.text) refers to co_sleep.o(.text) for coSleepModeStart
    eb_state.o(.text) refers to co_timer.o(.text) for coTimerStart
    eb_state.o(.text) refers to eb_battery.o(.text) for ebBatteryStateChange
    eb_state.o(.text) refers to eb_framework.o(.text) for iebUpdateStandardTPdos
    eb_state.o(.text) refers to co_pdo.o(.text) for coPdoReqObj
    eb_state.o(.text) refers to eb_framework.o(.bss) for ebData
    eb_state.o(.text) refers to eb_state.o(.bss) for nextStateEvent
    eb_state.o(.text) refers to eb_state.o(.data) for checkStateTable
    eb_state.o(.text) refers to eb_state.o(.constdata) for transTable
    gen_objdict.o(.text) refers to memcpya.o(.text) for __aeabi_memcpy4
    gen_objdict.o(.text) refers to co_stackinit.o(.text) for coCanOpenStackVarInit
    gen_objdict.o(.text) refers to co_odaccess.o(.text) for coOdInitOdPtr
    gen_objdict.o(.text) refers to co_timer.o(.text) for coTimerInit
    gen_objdict.o(.text) refers to co_sdoserv.o(.text) for coSdoServerInit
    gen_objdict.o(.text) refers to co_errctrl.o(.text) for coErrorCtrlInit
    gen_objdict.o(.text) refers to co_emcy.o(.text) for coEmcyProducerInit
    gen_objdict.o(.text) refers to co_sync.o(.text) for coSyncInit
    gen_objdict.o(.text) refers to co_pdo.o(.text) for coPdoTransmitInit
    gen_objdict.o(.text) refers to co_store.o(.text) for coEventRegister_LOAD_PARA
    gen_objdict.o(.text) refers to co_lss.o(.text) for coLssInit
    gen_objdict.o(.text) refers to co_nmt.o(.text) for coNmtInit
    gen_objdict.o(.text) refers to gen_objdict.o(.constdata) for .constdata
    gen_objdict.o(.constdata) refers to eb_battery.o(.bss) for ebBatData
    gen_objdict.o(.constdata) refers to eb_framework.o(.bss) for ebData
    gen_objdict.o(.constdata) refers to eb_framework.o(.data) for emtasVendorId
    gen_objdict.o(.constdata) refers to gen_objdict.o(.data) for od_u8
    gen_objdict.o(.constdata) refers to gen_objdict.o(.bss) for od_u32
    entry.o(.ARM.Collect$$$$00000000) refers (Special) to entry7b.o(.ARM.Collect$$$$00000008) for _main_clock
    entry.o(.ARM.Collect$$$$00000000) refers (Special) to entry8.o(.ARM.Collect$$$$00000009) for _main_init
    entry.o(.ARM.Collect$$$$00000000) refers (Special) to entry5.o(.ARM.Collect$$$$00000004) for _main_scatterload
    entry.o(.ARM.Collect$$$$00000000) refers (Special) to entry2.o(.ARM.Collect$$$$00000001) for _main_stk
    uldiv.o(.text) refers to llushr.o(.text) for __aeabi_llsr
    uldiv.o(.text) refers to llshl.o(.text) for __aeabi_llsl
    printfb.o(i.__0fprintf$bare) refers to printfb.o(i._printf_core) for _printf_core
    printfb.o(i.__0fprintf$bare) refers to fputc.o(i.fputc) for fputc
    printfb.o(i.__0printf$bare) refers to printfb.o(i._printf_core) for _printf_core
    printfb.o(i.__0printf$bare) refers to fputc.o(i.fputc) for fputc
    printfb.o(i.__0printf$bare) refers to stdout.o(.data) for __stdout
    printfb.o(i.__0snprintf$bare) refers to printfb.o(i._printf_core) for _printf_core
    printfb.o(i.__0snprintf$bare) refers to printfb.o(i._snputc) for _snputc
    printfb.o(i.__0sprintf$bare) refers to printfb.o(i._printf_core) for _printf_core
    printfb.o(i.__0sprintf$bare) refers to printfb.o(i._sputc) for _sputc
    printfb.o(i.__0vfprintf$bare) refers to printfb.o(i._printf_core) for _printf_core
    printfb.o(i.__0vfprintf$bare) refers to fputc.o(i.fputc) for fputc
    printfb.o(i.__0vprintf$bare) refers to printfb.o(i._printf_core) for _printf_core
    printfb.o(i.__0vprintf$bare) refers to fputc.o(i.fputc) for fputc
    printfb.o(i.__0vprintf$bare) refers to stdout.o(.data) for __stdout
    printfb.o(i.__0vsnprintf$bare) refers to printfb.o(i._printf_core) for _printf_core
    printfb.o(i.__0vsnprintf$bare) refers to printfb.o(i._snputc) for _snputc
    printfb.o(i.__0vsprintf$bare) refers to printfb.o(i._printf_core) for _printf_core
    printfb.o(i.__0vsprintf$bare) refers to printfb.o(i._sputc) for _sputc
    printf0.o(i.__0fprintf$0) refers to printf0.o(i._printf_core) for _printf_core
    printf0.o(i.__0fprintf$0) refers to fputc.o(i.fputc) for fputc
    printf0.o(i.__0printf$0) refers to printf0.o(i._printf_core) for _printf_core
    printf0.o(i.__0printf$0) refers to fputc.o(i.fputc) for fputc
    printf0.o(i.__0printf$0) refers to stdout.o(.data) for __stdout
    printf0.o(i.__0snprintf$0) refers to printf0.o(i._printf_core) for _printf_core
    printf0.o(i.__0snprintf$0) refers to printf0.o(i._snputc) for _snputc
    printf0.o(i.__0sprintf$0) refers to printf0.o(i._printf_core) for _printf_core
    printf0.o(i.__0sprintf$0) refers to printf0.o(i._sputc) for _sputc
    printf0.o(i.__0vfprintf$0) refers to printf0.o(i._printf_core) for _printf_core
    printf0.o(i.__0vfprintf$0) refers to fputc.o(i.fputc) for fputc
    printf0.o(i.__0vprintf$0) refers to printf0.o(i._printf_core) for _printf_core
    printf0.o(i.__0vprintf$0) refers to fputc.o(i.fputc) for fputc
    printf0.o(i.__0vprintf$0) refers to stdout.o(.data) for __stdout
    printf0.o(i.__0vsnprintf$0) refers to printf0.o(i._printf_core) for _printf_core
    printf0.o(i.__0vsnprintf$0) refers to printf0.o(i._snputc) for _snputc
    printf0.o(i.__0vsprintf$0) refers to printf0.o(i._printf_core) for _printf_core
    printf0.o(i.__0vsprintf$0) refers to printf0.o(i._sputc) for _sputc
    printf1.o(i.__0fprintf$1) refers to printf1.o(i._printf_core) for _printf_core
    printf1.o(i.__0fprintf$1) refers to fputc.o(i.fputc) for fputc
    printf1.o(i.__0printf$1) refers to printf1.o(i._printf_core) for _printf_core
    printf1.o(i.__0printf$1) refers to fputc.o(i.fputc) for fputc
    printf1.o(i.__0printf$1) refers to stdout.o(.data) for __stdout
    printf1.o(i.__0snprintf$1) refers to printf1.o(i._printf_core) for _printf_core
    printf1.o(i.__0snprintf$1) refers to printf1.o(i._snputc) for _snputc
    printf1.o(i.__0sprintf$1) refers to printf1.o(i._printf_core) for _printf_core
    printf1.o(i.__0sprintf$1) refers to printf1.o(i._sputc) for _sputc
    printf1.o(i.__0vfprintf$1) refers to printf1.o(i._printf_core) for _printf_core
    printf1.o(i.__0vfprintf$1) refers to fputc.o(i.fputc) for fputc
    printf1.o(i.__0vprintf$1) refers to printf1.o(i._printf_core) for _printf_core
    printf1.o(i.__0vprintf$1) refers to fputc.o(i.fputc) for fputc
    printf1.o(i.__0vprintf$1) refers to stdout.o(.data) for __stdout
    printf1.o(i.__0vsnprintf$1) refers to printf1.o(i._printf_core) for _printf_core
    printf1.o(i.__0vsnprintf$1) refers to printf1.o(i._snputc) for _snputc
    printf1.o(i.__0vsprintf$1) refers to printf1.o(i._printf_core) for _printf_core
    printf1.o(i.__0vsprintf$1) refers to printf1.o(i._sputc) for _sputc
    printf1.o(i._printf_core) refers to uidiv.o(.text) for __aeabi_uidivmod
    printf2.o(i.__0fprintf$2) refers to printf2.o(i._printf_core) for _printf_core
    printf2.o(i.__0fprintf$2) refers to fputc.o(i.fputc) for fputc
    printf2.o(i.__0printf$2) refers to printf2.o(i._printf_core) for _printf_core
    printf2.o(i.__0printf$2) refers to fputc.o(i.fputc) for fputc
    printf2.o(i.__0printf$2) refers to stdout.o(.data) for __stdout
    printf2.o(i.__0snprintf$2) refers to printf2.o(i._printf_core) for _printf_core
    printf2.o(i.__0snprintf$2) refers to printf2.o(i._snputc) for _snputc
    printf2.o(i.__0sprintf$2) refers to printf2.o(i._printf_core) for _printf_core
    printf2.o(i.__0sprintf$2) refers to printf2.o(i._sputc) for _sputc
    printf2.o(i.__0vfprintf$2) refers to printf2.o(i._printf_core) for _printf_core
    printf2.o(i.__0vfprintf$2) refers to fputc.o(i.fputc) for fputc
    printf2.o(i.__0vprintf$2) refers to printf2.o(i._printf_core) for _printf_core
    printf2.o(i.__0vprintf$2) refers to fputc.o(i.fputc) for fputc
    printf2.o(i.__0vprintf$2) refers to stdout.o(.data) for __stdout
    printf2.o(i.__0vsnprintf$2) refers to printf2.o(i._printf_core) for _printf_core
    printf2.o(i.__0vsnprintf$2) refers to printf2.o(i._snputc) for _snputc
    printf2.o(i.__0vsprintf$2) refers to printf2.o(i._printf_core) for _printf_core
    printf2.o(i.__0vsprintf$2) refers to printf2.o(i._sputc) for _sputc
    printf3.o(i.__0fprintf$3) refers to printf3.o(i._printf_core) for _printf_core
    printf3.o(i.__0fprintf$3) refers to fputc.o(i.fputc) for fputc
    printf3.o(i.__0printf$3) refers to printf3.o(i._printf_core) for _printf_core
    printf3.o(i.__0printf$3) refers to fputc.o(i.fputc) for fputc
    printf3.o(i.__0printf$3) refers to stdout.o(.data) for __stdout
    printf3.o(i.__0snprintf$3) refers to printf3.o(i._printf_core) for _printf_core
    printf3.o(i.__0snprintf$3) refers to printf3.o(i._snputc) for _snputc
    printf3.o(i.__0sprintf$3) refers to printf3.o(i._printf_core) for _printf_core
    printf3.o(i.__0sprintf$3) refers to printf3.o(i._sputc) for _sputc
    printf3.o(i.__0vfprintf$3) refers to printf3.o(i._printf_core) for _printf_core
    printf3.o(i.__0vfprintf$3) refers to fputc.o(i.fputc) for fputc
    printf3.o(i.__0vprintf$3) refers to printf3.o(i._printf_core) for _printf_core
    printf3.o(i.__0vprintf$3) refers to fputc.o(i.fputc) for fputc
    printf3.o(i.__0vprintf$3) refers to stdout.o(.data) for __stdout
    printf3.o(i.__0vsnprintf$3) refers to printf3.o(i._printf_core) for _printf_core
    printf3.o(i.__0vsnprintf$3) refers to printf3.o(i._snputc) for _snputc
    printf3.o(i.__0vsprintf$3) refers to printf3.o(i._printf_core) for _printf_core
    printf3.o(i.__0vsprintf$3) refers to printf3.o(i._sputc) for _sputc
    printf3.o(i._printf_core) refers to uidiv.o(.text) for __aeabi_uidivmod
    printf4.o(i.__0fprintf$4) refers to printf4.o(i._printf_core) for _printf_core
    printf4.o(i.__0fprintf$4) refers to fputc.o(i.fputc) for fputc
    printf4.o(i.__0printf$4) refers to printf4.o(i._printf_core) for _printf_core
    printf4.o(i.__0printf$4) refers to fputc.o(i.fputc) for fputc
    printf4.o(i.__0printf$4) refers to stdout.o(.data) for __stdout
    printf4.o(i.__0snprintf$4) refers to printf4.o(i._printf_core) for _printf_core
    printf4.o(i.__0snprintf$4) refers to printf4.o(i._snputc) for _snputc
    printf4.o(i.__0sprintf$4) refers to printf4.o(i._printf_core) for _printf_core
    printf4.o(i.__0sprintf$4) refers to printf4.o(i._sputc) for _sputc
    printf4.o(i.__0vfprintf$4) refers to printf4.o(i._printf_core) for _printf_core
    printf4.o(i.__0vfprintf$4) refers to fputc.o(i.fputc) for fputc
    printf4.o(i.__0vprintf$4) refers to printf4.o(i._printf_core) for _printf_core
    printf4.o(i.__0vprintf$4) refers to fputc.o(i.fputc) for fputc
    printf4.o(i.__0vprintf$4) refers to stdout.o(.data) for __stdout
    printf4.o(i.__0vsnprintf$4) refers to printf4.o(i._printf_core) for _printf_core
    printf4.o(i.__0vsnprintf$4) refers to printf4.o(i._snputc) for _snputc
    printf4.o(i.__0vsprintf$4) refers to printf4.o(i._printf_core) for _printf_core
    printf4.o(i.__0vsprintf$4) refers to printf4.o(i._sputc) for _sputc
    printf4.o(i._printf_core) refers to uldiv.o(.text) for __aeabi_uldivmod
    printf5.o(i.__0fprintf$5) refers to printf5.o(i._printf_core) for _printf_core
    printf5.o(i.__0fprintf$5) refers to fputc.o(i.fputc) for fputc
    printf5.o(i.__0printf$5) refers to printf5.o(i._printf_core) for _printf_core
    printf5.o(i.__0printf$5) refers to fputc.o(i.fputc) for fputc
    printf5.o(i.__0printf$5) refers to stdout.o(.data) for __stdout
    printf5.o(i.__0snprintf$5) refers to printf5.o(i._printf_core) for _printf_core
    printf5.o(i.__0snprintf$5) refers to printf5.o(i._snputc) for _snputc
    printf5.o(i.__0sprintf$5) refers to printf5.o(i._printf_core) for _printf_core
    printf5.o(i.__0sprintf$5) refers to printf5.o(i._sputc) for _sputc
    printf5.o(i.__0vfprintf$5) refers to printf5.o(i._printf_core) for _printf_core
    printf5.o(i.__0vfprintf$5) refers to fputc.o(i.fputc) for fputc
    printf5.o(i.__0vprintf$5) refers to printf5.o(i._printf_core) for _printf_core
    printf5.o(i.__0vprintf$5) refers to fputc.o(i.fputc) for fputc
    printf5.o(i.__0vprintf$5) refers to stdout.o(.data) for __stdout
    printf5.o(i.__0vsnprintf$5) refers to printf5.o(i._printf_core) for _printf_core
    printf5.o(i.__0vsnprintf$5) refers to printf5.o(i._snputc) for _snputc
    printf5.o(i.__0vsprintf$5) refers to printf5.o(i._printf_core) for _printf_core
    printf5.o(i.__0vsprintf$5) refers to printf5.o(i._sputc) for _sputc
    printf5.o(i._printf_core) refers to uldiv.o(.text) for __aeabi_uldivmod
    printf6.o(i.__0fprintf$6) refers to printf6.o(i._printf_core) for _printf_core
    printf6.o(i.__0fprintf$6) refers to fputc.o(i.fputc) for fputc
    printf6.o(i.__0printf$6) refers to printf6.o(i._printf_core) for _printf_core
    printf6.o(i.__0printf$6) refers to fputc.o(i.fputc) for fputc
    printf6.o(i.__0printf$6) refers to stdout.o(.data) for __stdout
    printf6.o(i.__0snprintf$6) refers to printf6.o(i._printf_core) for _printf_core
    printf6.o(i.__0snprintf$6) refers to printf6.o(i._snputc) for _snputc
    printf6.o(i.__0sprintf$6) refers to printf6.o(i._printf_core) for _printf_core
    printf6.o(i.__0sprintf$6) refers to printf6.o(i._sputc) for _sputc
    printf6.o(i.__0vfprintf$6) refers to printf6.o(i._printf_core) for _printf_core
    printf6.o(i.__0vfprintf$6) refers to fputc.o(i.fputc) for fputc
    printf6.o(i.__0vprintf$6) refers to printf6.o(i._printf_core) for _printf_core
    printf6.o(i.__0vprintf$6) refers to fputc.o(i.fputc) for fputc
    printf6.o(i.__0vprintf$6) refers to stdout.o(.data) for __stdout
    printf6.o(i.__0vsnprintf$6) refers to printf6.o(i._printf_core) for _printf_core
    printf6.o(i.__0vsnprintf$6) refers to printf6.o(i._snputc) for _snputc
    printf6.o(i.__0vsprintf$6) refers to printf6.o(i._printf_core) for _printf_core
    printf6.o(i.__0vsprintf$6) refers to printf6.o(i._sputc) for _sputc
    printf6.o(i._printf_core) refers to printf6.o(i._printf_pre_padding) for _printf_pre_padding
    printf6.o(i._printf_core) refers to uidiv.o(.text) for __aeabi_uidivmod
    printf6.o(i._printf_core) refers to printf6.o(i._printf_post_padding) for _printf_post_padding
    printf7.o(i.__0fprintf$7) refers to printf7.o(i._printf_core) for _printf_core
    printf7.o(i.__0fprintf$7) refers to fputc.o(i.fputc) for fputc
    printf7.o(i.__0printf$7) refers to printf7.o(i._printf_core) for _printf_core
    printf7.o(i.__0printf$7) refers to fputc.o(i.fputc) for fputc
    printf7.o(i.__0printf$7) refers to stdout.o(.data) for __stdout
    printf7.o(i.__0snprintf$7) refers to printf7.o(i._printf_core) for _printf_core
    printf7.o(i.__0snprintf$7) refers to printf7.o(i._snputc) for _snputc
    printf7.o(i.__0sprintf$7) refers to printf7.o(i._printf_core) for _printf_core
    printf7.o(i.__0sprintf$7) refers to printf7.o(i._sputc) for _sputc
    printf7.o(i.__0vfprintf$7) refers to printf7.o(i._printf_core) for _printf_core
    printf7.o(i.__0vfprintf$7) refers to fputc.o(i.fputc) for fputc
    printf7.o(i.__0vprintf$7) refers to printf7.o(i._printf_core) for _printf_core
    printf7.o(i.__0vprintf$7) refers to fputc.o(i.fputc) for fputc
    printf7.o(i.__0vprintf$7) refers to stdout.o(.data) for __stdout
    printf7.o(i.__0vsnprintf$7) refers to printf7.o(i._printf_core) for _printf_core
    printf7.o(i.__0vsnprintf$7) refers to printf7.o(i._snputc) for _snputc
    printf7.o(i.__0vsprintf$7) refers to printf7.o(i._printf_core) for _printf_core
    printf7.o(i.__0vsprintf$7) refers to printf7.o(i._sputc) for _sputc
    printf7.o(i._printf_core) refers to printf7.o(i._printf_pre_padding) for _printf_pre_padding
    printf7.o(i._printf_core) refers to uldiv.o(.text) for __aeabi_uldivmod
    printf7.o(i._printf_core) refers to printf7.o(i._printf_post_padding) for _printf_post_padding
    printf8.o(i.__0fprintf$8) refers to printf8.o(i._printf_core) for _printf_core
    printf8.o(i.__0fprintf$8) refers to fputc.o(i.fputc) for fputc
    printf8.o(i.__0printf$8) refers to printf8.o(i._printf_core) for _printf_core
    printf8.o(i.__0printf$8) refers to fputc.o(i.fputc) for fputc
    printf8.o(i.__0printf$8) refers to stdout.o(.data) for __stdout
    printf8.o(i.__0snprintf$8) refers to printf8.o(i._printf_core) for _printf_core
    printf8.o(i.__0snprintf$8) refers to printf8.o(i._snputc) for _snputc
    printf8.o(i.__0sprintf$8) refers to printf8.o(i._printf_core) for _printf_core
    printf8.o(i.__0sprintf$8) refers to printf8.o(i._sputc) for _sputc
    printf8.o(i.__0vfprintf$8) refers to printf8.o(i._printf_core) for _printf_core
    printf8.o(i.__0vfprintf$8) refers to fputc.o(i.fputc) for fputc
    printf8.o(i.__0vprintf$8) refers to printf8.o(i._printf_core) for _printf_core
    printf8.o(i.__0vprintf$8) refers to fputc.o(i.fputc) for fputc
    printf8.o(i.__0vprintf$8) refers to stdout.o(.data) for __stdout
    printf8.o(i.__0vsnprintf$8) refers to printf8.o(i._printf_core) for _printf_core
    printf8.o(i.__0vsnprintf$8) refers to printf8.o(i._snputc) for _snputc
    printf8.o(i.__0vsprintf$8) refers to printf8.o(i._printf_core) for _printf_core
    printf8.o(i.__0vsprintf$8) refers to printf8.o(i._sputc) for _sputc
    printf8.o(i._printf_core) refers to printf8.o(i._printf_pre_padding) for _printf_pre_padding
    printf8.o(i._printf_core) refers to uldiv.o(.text) for __aeabi_uldivmod
    printf8.o(i._printf_core) refers to printf8.o(i._printf_post_padding) for _printf_post_padding
    printfa.o(i.__0fprintf) refers (Special) to iusefp.o(.text) for __I$use$fp
    printfa.o(i.__0fprintf) refers to printfa.o(i._printf_core) for _printf_core
    printfa.o(i.__0fprintf) refers to fputc.o(i.fputc) for fputc
    printfa.o(i.__0printf) refers (Special) to iusefp.o(.text) for __I$use$fp
    printfa.o(i.__0printf) refers to printfa.o(i._printf_core) for _printf_core
    printfa.o(i.__0printf) refers to fputc.o(i.fputc) for fputc
    printfa.o(i.__0printf) refers to stdout.o(.data) for __stdout
    printfa.o(i.__0snprintf) refers (Special) to iusefp.o(.text) for __I$use$fp
    printfa.o(i.__0snprintf) refers to printfa.o(i._printf_core) for _printf_core
    printfa.o(i.__0snprintf) refers to printfa.o(i._snputc) for _snputc
    printfa.o(i.__0sprintf) refers (Special) to iusefp.o(.text) for __I$use$fp
    printfa.o(i.__0sprintf) refers to printfa.o(i._printf_core) for _printf_core
    printfa.o(i.__0sprintf) refers to printfa.o(i._sputc) for _sputc
    printfa.o(i.__0vfprintf) refers (Special) to iusefp.o(.text) for __I$use$fp
    printfa.o(i.__0vfprintf) refers to printfa.o(i._printf_core) for _printf_core
    printfa.o(i.__0vfprintf) refers to fputc.o(i.fputc) for fputc
    printfa.o(i.__0vprintf) refers (Special) to iusefp.o(.text) for __I$use$fp
    printfa.o(i.__0vprintf) refers to printfa.o(i._printf_core) for _printf_core
    printfa.o(i.__0vprintf) refers to fputc.o(i.fputc) for fputc
    printfa.o(i.__0vprintf) refers to stdout.o(.data) for __stdout
    printfa.o(i.__0vsnprintf) refers (Special) to iusefp.o(.text) for __I$use$fp
    printfa.o(i.__0vsnprintf) refers to printfa.o(i._printf_core) for _printf_core
    printfa.o(i.__0vsnprintf) refers to printfa.o(i._snputc) for _snputc
    printfa.o(i.__0vsprintf) refers (Special) to iusefp.o(.text) for __I$use$fp
    printfa.o(i.__0vsprintf) refers to printfa.o(i._printf_core) for _printf_core
    printfa.o(i.__0vsprintf) refers to printfa.o(i._sputc) for _sputc
    printfa.o(i._fp_digits) refers (Special) to iusefp.o(.text) for __I$use$fp
    printfa.o(i._fp_digits) refers to dmul.o(.text) for __aeabi_dmul
    printfa.o(i._fp_digits) refers to ddiv.o(.text) for __aeabi_ddiv
    printfa.o(i._fp_digits) refers to cdrcmple.o(.text) for __aeabi_cdrcmple
    printfa.o(i._fp_digits) refers to dadd.o(.text) for __aeabi_dadd
    printfa.o(i._fp_digits) refers to dfixul.o(.text) for __aeabi_d2ulz
    printfa.o(i._fp_digits) refers to uldiv.o(.text) for __aeabi_uldivmod
    printfa.o(i._printf_core) refers (Special) to iusefp.o(.text) for __I$use$fp
    printfa.o(i._printf_core) refers to printfa.o(i._printf_pre_padding) for _printf_pre_padding
    printfa.o(i._printf_core) refers to uldiv.o(.text) for __aeabi_uldivmod
    printfa.o(i._printf_core) refers to printfa.o(i._printf_post_padding) for _printf_post_padding
    printfa.o(i._printf_core) refers to printfa.o(i._fp_digits) for _fp_digits
    printfa.o(i._printf_core) refers to uidiv.o(.text) for __aeabi_uidivmod
    printfa.o(i._printf_post_padding) refers (Special) to iusefp.o(.text) for __I$use$fp
    printfa.o(i._printf_pre_padding) refers (Special) to iusefp.o(.text) for __I$use$fp
    printfa.o(i._snputc) refers (Special) to iusefp.o(.text) for __I$use$fp
    printfa.o(i._sputc) refers (Special) to iusefp.o(.text) for __I$use$fp
    dmul.o(.text) refers (Special) to iusefp.o(.text) for __I$use$fp
    dmul.o(.text) refers to depilogue.o(.text) for _double_epilogue
    ddiv.o(.text) refers (Special) to iusefp.o(.text) for __I$use$fp
    ddiv.o(.text) refers to depilogue.o(.text) for _double_round
    dfltui.o(.text) refers (Special) to iusefp.o(.text) for __I$use$fp
    dfltui.o(.text) refers to depilogue.o(.text) for _double_epilogue
    d2f.o(.text) refers (Special) to iusefp.o(.text) for __I$use$fp
    d2f.o(.text) refers to fepilogue.o(.text) for _float_round
    entry2.o(.ARM.Collect$$$$00000001) refers to entry2.o(.ARM.Collect$$$$00002712) for __lit__00000000
    entry2.o(.ARM.Collect$$$$00002712) refers to startup_stm32f4xx.o(STACK) for __initial_sp
    entry2.o(__vectab_stack_and_reset_area) refers to startup_stm32f4xx.o(STACK) for __initial_sp
    entry2.o(__vectab_stack_and_reset_area) refers to entry.o(.ARM.Collect$$$$00000000) for __main
    entry5.o(.ARM.Collect$$$$00000004) refers to init.o(.text) for __scatterload
    entry8.o(.ARM.Collect$$$$00000009) refers to main.o(.text) for main
    fputc.o(i.fputc) refers (Special) to iusesemip.o(.text) for __I$use$semihosting$fputc
    fputc.o(i.fputc) refers (Special) to semi.o(.text) for __semihosting_library_function
    depilogue.o(.text) refers to llshl.o(.text) for __aeabi_llsl
    depilogue.o(.text) refers to llushr.o(.text) for __aeabi_llsr
    dadd.o(.text) refers to llshl.o(.text) for __aeabi_llsl
    dadd.o(.text) refers to llsshr.o(.text) for __aeabi_lasr
    dadd.o(.text) refers to depilogue.o(.text) for _double_epilogue
    dfixul.o(.text) refers to llushr.o(.text) for __aeabi_llsr
    dfixul.o(.text) refers to llshl.o(.text) for __aeabi_llsl
    init.o(.text) refers to entry5.o(.ARM.Collect$$$$00000004) for __main_after_scatterload


==============================================================================

Removing Unused input sections from the image.

    Removing main.o(.emb_text), (8 bytes).
    Removing appbmu.o(.emb_text), (8 bytes).
    Removing task_can1.o(.emb_text), (8 bytes).
    Removing task_adc.o(.emb_text), (8 bytes).
    Removing task_avchg.o(.emb_text), (8 bytes).
    Removing task_avchg.o(.text), (1068 bytes).
    Removing task_avchg.o(.bss), (1600 bytes).
    Removing task_avchg.o(.constdata), (524 bytes).
    Removing task_eflash.o(.emb_text), (8 bytes).
    Removing task_eflash.o(.bss), (1600 bytes).
    Removing appconfig.o(.emb_text), (8 bytes).
    Removing task_main.o(.emb_text), (8 bytes).
    Removing task_syscheck.o(.emb_text), (8 bytes).
    Removing task_syscheck.o(.text), (244 bytes).
    Removing task_syscheck.o(.bss), (1640 bytes).
    Removing task_wifi.o(.emb_text), (8 bytes).
    Removing task_wifi.o(.text), (36 bytes).
    Removing task_wifi.o(.bss), (1600 bytes).
    Removing task_wifi.o(.data), (4 bytes).
    Removing task_ltc.o(.emb_text), (8 bytes).
    Removing task_can2.o(.emb_text), (8 bytes).
    Removing bsp_global.o(.emb_text), (8 bytes).
    Removing nvic.o(.emb_text), (8 bytes).
    Removing 24c02.o(.emb_text), (8 bytes).
    Removing 24c02.o(.text), (600 bytes).
    Removing bsp_gpio.o(.emb_text), (8 bytes).
    Removing bsp_can.o(.emb_text), (8 bytes).
    Removing bsp_adc.o(.emb_text), (8 bytes).
    Removing bsp_sci.o(.emb_text), (8 bytes).
    Removing dma.o(.emb_text), (8 bytes).
    Removing flashdriver.o(.emb_text), (8 bytes).
    Removing sst25vf016b.o(.emb_text), (8 bytes).
    Removing bsp_wdg.o(.emb_text), (8 bytes).
    Removing bsp_wifi.o(.emb_text), (8 bytes).
    Removing hal.o(.emb_text), (8 bytes).
    Removing hal.o(.text), (14 bytes).
    Removing m_delay_p.o(.text), (62 bytes).
    Removing misc.o(.emb_text), (8 bytes).
    Removing stm32f4xx_adc.o(.emb_text), (8 bytes).
    Removing stm32f4xx_can.o(.emb_text), (8 bytes).
    Removing stm32f4xx_crc.o(.emb_text), (8 bytes).
    Removing stm32f4xx_crc.o(.text), (72 bytes).
    Removing stm32f4xx_cryp.o(.emb_text), (8 bytes).
    Removing stm32f4xx_cryp.o(.text), (648 bytes).
    Removing stm32f4xx_cryp_aes.o(.emb_text), (8 bytes).
    Removing stm32f4xx_cryp_aes.o(.text), (1578 bytes).
    Removing stm32f4xx_cryp_des.o(.emb_text), (8 bytes).
    Removing stm32f4xx_cryp_des.o(.text), (490 bytes).
    Removing stm32f4xx_cryp_tdes.o(.emb_text), (8 bytes).
    Removing stm32f4xx_cryp_tdes.o(.text), (554 bytes).
    Removing stm32f4xx_dac.o(.emb_text), (8 bytes).
    Removing stm32f4xx_dac.o(.text), (496 bytes).
    Removing stm32f4xx_dbgmcu.o(.emb_text), (8 bytes).
    Removing stm32f4xx_dbgmcu.o(.text), (100 bytes).
    Removing stm32f4xx_dcmi.o(.emb_text), (8 bytes).
    Removing stm32f4xx_dcmi.o(.text), (396 bytes).
    Removing stm32f4xx_dma.o(.emb_text), (8 bytes).
    Removing stm32f4xx_exti.o(.emb_text), (8 bytes).
    Removing stm32f4xx_exti.o(.text), (284 bytes).
    Removing stm32f4xx_flash.o(.emb_text), (8 bytes).
    Removing stm32f4xx_flash.o(.text), (1204 bytes).
    Removing stm32f4xx_fsmc.o(.emb_text), (8 bytes).
    Removing stm32f4xx_fsmc.o(.text), (1568 bytes).
    Removing stm32f4xx_gpio.o(.emb_text), (8 bytes).
    Removing stm32f4xx_hash.o(.emb_text), (8 bytes).
    Removing stm32f4xx_hash.o(.text), (496 bytes).
    Removing stm32f4xx_hash_md5.o(.emb_text), (8 bytes).
    Removing stm32f4xx_hash_md5.o(.text), (522 bytes).
    Removing stm32f4xx_hash_sha1.o(.emb_text), (8 bytes).
    Removing stm32f4xx_hash_sha1.o(.text), (536 bytes).
    Removing stm32f4xx_i2c.o(.emb_text), (8 bytes).
    Removing stm32f4xx_i2c.o(.text), (1052 bytes).
    Removing stm32f4xx_iwdg.o(.emb_text), (8 bytes).
    Removing stm32f4xx_pwr.o(.emb_text), (8 bytes).
    Removing stm32f4xx_pwr.o(.text), (252 bytes).
    Removing stm32f4xx_rcc.o(.emb_text), (8 bytes).
    Removing stm32f4xx_rng.o(.emb_text), (8 bytes).
    Removing stm32f4xx_rtc.o(.emb_text), (8 bytes).
    Removing stm32f4xx_rtc.o(.text), (3308 bytes).
    Removing stm32f4xx_sdio.o(.emb_text), (8 bytes).
    Removing stm32f4xx_sdio.o(.text), (476 bytes).
    Removing stm32f4xx_spi.o(.emb_text), (8 bytes).
    Removing stm32f4xx_syscfg.o(.emb_text), (8 bytes).
    Removing stm32f4xx_syscfg.o(.text), (140 bytes).
    Removing stm32f4xx_tim.o(.emb_text), (8 bytes).
    Removing stm32f4xx_usart.o(.emb_text), (8 bytes).
    Removing stm32f4xx_wwdg.o(.emb_text), (8 bytes).
    Removing stm32f4xx_wwdg.o(.text), (132 bytes).
    Removing startup_stm32f4xx.o(HEAP), (512 bytes).
    Removing system_stm32f4xx.o(.emb_text), (8 bytes).
    Removing os_cpu_c.o(.emb_text), (8 bytes).
    Removing os_dbg.o(.emb_text), (8 bytes).
    Removing os_dbg.o(.constdata), (2 bytes).
    Removing os_core.o(.emb_text), (8 bytes).
    Removing os_flag.o(.emb_text), (8 bytes).
    Removing os_mbox.o(.emb_text), (8 bytes).
    Removing os_mbox.o(.text), (996 bytes).
    Removing os_mem.o(.emb_text), (8 bytes).
    Removing os_mutex.o(.emb_text), (8 bytes).
    Removing os_mutex.o(.text), (1572 bytes).
    Removing os_q.o(.emb_text), (8 bytes).
    Removing os_sem.o(.emb_text), (8 bytes).
    Removing os_task.o(.emb_text), (8 bytes).
    Removing os_time.o(.emb_text), (8 bytes).
    Removing os_tmr.o(.emb_text), (8 bytes).
    Removing systick.o(.emb_text), (8 bytes).
    Removing timer.o(.emb_text), (8 bytes).
    Removing globalvar.o(.emb_text), (8 bytes).
    Removing co_nmtmaster.o(.text), (524 bytes).
    Removing co_nmtmaster.o(.data), (10 bytes).
    Removing codrv_can_generic.o(.emb_text), (8 bytes).
    Removing eb_debug.o(.text), (392 bytes).
    Removing eb_debug.o(.bss), (50 bytes).
    Removing eb_debug.o(.constdata), (888 bytes).
    Removing dadd.o(.text), (332 bytes).
    Removing dfixul.o(.text), (48 bytes).
    Removing cdrcmple.o(.text), (40 bytes).

117 unused section(s) (total 29246 bytes) removed from the image.

==============================================================================

Image Symbol Table

    Local Symbols

    Symbol Name                              Value     Ov Type        Size  Object(Section)

    ../../../cmprslib/zerorunl2.c            0x00000000   Number         0  __dczerorl2.o ABSOLUTE
    ../../microlib/d2f.c                     0x00000000   Number         0  d2f.o ABSOLUTE
    ../../microlib/division.c                0x00000000   Number         0  uldiv.o ABSOLUTE
    ../../microlib/division.c                0x00000000   Number         0  uidiv.o ABSOLUTE
    ../../microlib/fpadd.c                   0x00000000   Number         0  dadd.o ABSOLUTE
    ../../microlib/fpdiv.c                   0x00000000   Number         0  ddiv.o ABSOLUTE
    ../../microlib/fpepilogue.c              0x00000000   Number         0  depilogue.o ABSOLUTE
    ../../microlib/fpepilogue.c              0x00000000   Number         0  fepilogue.o ABSOLUTE
    ../../microlib/fpfix.c                   0x00000000   Number         0  dfixul.o ABSOLUTE
    ../../microlib/fpflt.c                   0x00000000   Number         0  dfltui.o ABSOLUTE
    ../../microlib/fpmul.c                   0x00000000   Number         0  dmul.o ABSOLUTE
    ../../microlib/init/entry.s              0x00000000   Number         0  entry2.o ABSOLUTE
    ../../microlib/init/entry.s              0x00000000   Number         0  entry.o ABSOLUTE
    ../../microlib/init/entry.s              0x00000000   Number         0  entry5.o ABSOLUTE
    ../../microlib/init/entry.s              0x00000000   Number         0  entry7a.o ABSOLUTE
    ../../microlib/init/entry.s              0x00000000   Number         0  entry7b.o ABSOLUTE
    ../../microlib/init/entry.s              0x00000000   Number         0  entry8.o ABSOLUTE
    ../../microlib/longlong.c                0x00000000   Number         0  llsshr.o ABSOLUTE
    ../../microlib/longlong.c                0x00000000   Number         0  llushr.o ABSOLUTE
    ../../microlib/longlong.c                0x00000000   Number         0  llshl.o ABSOLUTE
    ../../microlib/printf/printf.c           0x00000000   Number         0  printf6.o ABSOLUTE
    ../../microlib/printf/printf.c           0x00000000   Number         0  printf3.o ABSOLUTE
    ../../microlib/printf/printf.c           0x00000000   Number         0  printf2.o ABSOLUTE
    ../../microlib/printf/printf.c           0x00000000   Number         0  printf0.o ABSOLUTE
    ../../microlib/printf/printf.c           0x00000000   Number         0  printfb.o ABSOLUTE
    ../../microlib/printf/printf.c           0x00000000   Number         0  printfa.o ABSOLUTE
    ../../microlib/printf/printf.c           0x00000000   Number         0  printf1.o ABSOLUTE
    ../../microlib/printf/printf.c           0x00000000   Number         0  printf8.o ABSOLUTE
    ../../microlib/printf/printf.c           0x00000000   Number         0  printf5.o ABSOLUTE
    ../../microlib/printf/printf.c           0x00000000   Number         0  printf7.o ABSOLUTE
    ../../microlib/printf/printf.c           0x00000000   Number         0  printf4.o ABSOLUTE
    ../../microlib/printf/stubs.s            0x00000000   Number         0  stubs.o ABSOLUTE
    ../../microlib/stdio/fputc.c             0x00000000   Number         0  fputc.o ABSOLUTE
    ../../microlib/stdio/semi.s              0x00000000   Number         0  semi.o ABSOLUTE
    ../../microlib/stdio/streams.c           0x00000000   Number         0  stdout.o ABSOLUTE
    ../../microlib/string/memcpy.c           0x00000000   Number         0  memcpyb.o ABSOLUTE
    ../../microlib/string/memcpy.c           0x00000000   Number         0  memcpya.o ABSOLUTE
    ../../microlib/string/memset.c           0x00000000   Number         0  memseta.o ABSOLUTE
    ../../microlib/string/strcat.c           0x00000000   Number         0  strcat.o ABSOLUTE
    ../../microlib/string/strcpy.c           0x00000000   Number         0  strcpy.o ABSOLUTE
    ../../microlib/string/strlen.c           0x00000000   Number         0  strlen.o ABSOLUTE
    ../../microlib/string/strncmp.c          0x00000000   Number         0  strncmp.o ABSOLUTE
    ../../microlib/stubs.s                   0x00000000   Number         0  iusefp.o ABSOLUTE
    ../../microlib/stubs.s                   0x00000000   Number         0  iusesemip.o ABSOLUTE
    ..\App\Main.c                            0x00000000   Number         0  main.o ABSOLUTE
    ..\App\Task_ADC.c                        0x00000000   Number         0  task_adc.o ABSOLUTE
    ..\App\Task_AVChg.c                      0x00000000   Number         0  task_avchg.o ABSOLUTE
    ..\App\Task_CAN1.c                       0x00000000   Number         0  task_can1.o ABSOLUTE
    ..\App\Task_CAN2.c                       0x00000000   Number         0  task_can2.o ABSOLUTE
    ..\App\Task_EFlash.c                     0x00000000   Number         0  task_eflash.o ABSOLUTE
    ..\App\Task_LTC.c                        0x00000000   Number         0  task_ltc.o ABSOLUTE
    ..\App\Task_SysCheck.c                   0x00000000   Number         0  task_syscheck.o ABSOLUTE
    ..\App\Task_Wifi.c                       0x00000000   Number         0  task_wifi.o ABSOLUTE
    ..\App\Task_main.c                       0x00000000   Number         0  task_main.o ABSOLUTE
    ..\App\appBMU.c                          0x00000000   Number         0  appbmu.o ABSOLUTE
    ..\App\appConfig.c                       0x00000000   Number         0  appconfig.o ABSOLUTE
    ..\App\co_battery.c                      0x00000000   Number         0  co_battery.o ABSOLUTE
    ..\BSP\24C02.c                           0x00000000   Number         0  24c02.o ABSOLUTE
    ..\BSP\BSP_ADC.c                         0x00000000   Number         0  bsp_adc.o ABSOLUTE
    ..\BSP\BSP_GPIO.c                        0x00000000   Number         0  bsp_gpio.o ABSOLUTE
    ..\BSP\BSP_SCI.c                         0x00000000   Number         0  bsp_sci.o ABSOLUTE
    ..\BSP\BSP_WDG.c                         0x00000000   Number         0  bsp_wdg.o ABSOLUTE
    ..\BSP\BSP_wifi.c                        0x00000000   Number         0  bsp_wifi.o ABSOLUTE
    ..\BSP\Bsp_Global.c                      0x00000000   Number         0  bsp_global.o ABSOLUTE
    ..\BSP\DMA.C                             0x00000000   Number         0  dma.o ABSOLUTE
    ..\BSP\FlashDriver.c                     0x00000000   Number         0  flashdriver.o ABSOLUTE
    ..\BSP\HAL.c                             0x00000000   Number         0  hal.o ABSOLUTE
    ..\BSP\NVIC.C                            0x00000000   Number         0  nvic.o ABSOLUTE
    ..\BSP\SST25VF016B.c                     0x00000000   Number         0  sst25vf016b.o ABSOLUTE
    ..\BSP\bsp_CAN.C                         0x00000000   Number         0  bsp_can.o ABSOLUTE
    ..\CMSIS\Core\startup_stm32f4xx.s        0x00000000   Number         0  startup_stm32f4xx.o ABSOLUTE
    ..\CMSIS\Core\system_stm32f4xx.c         0x00000000   Number         0  system_stm32f4xx.o ABSOLUTE
    ..\CMSIS\Driver\misc.c                   0x00000000   Number         0  misc.o ABSOLUTE
    ..\CMSIS\Driver\stm32f4xx_adc.c          0x00000000   Number         0  stm32f4xx_adc.o ABSOLUTE
    ..\CMSIS\Driver\stm32f4xx_can.c          0x00000000   Number         0  stm32f4xx_can.o ABSOLUTE
    ..\CMSIS\Driver\stm32f4xx_crc.c          0x00000000   Number         0  stm32f4xx_crc.o ABSOLUTE
    ..\CMSIS\Driver\stm32f4xx_cryp.c         0x00000000   Number         0  stm32f4xx_cryp.o ABSOLUTE
    ..\CMSIS\Driver\stm32f4xx_cryp_aes.c     0x00000000   Number         0  stm32f4xx_cryp_aes.o ABSOLUTE
    ..\CMSIS\Driver\stm32f4xx_cryp_des.c     0x00000000   Number         0  stm32f4xx_cryp_des.o ABSOLUTE
    ..\CMSIS\Driver\stm32f4xx_cryp_tdes.c    0x00000000   Number         0  stm32f4xx_cryp_tdes.o ABSOLUTE
    ..\CMSIS\Driver\stm32f4xx_dac.c          0x00000000   Number         0  stm32f4xx_dac.o ABSOLUTE
    ..\CMSIS\Driver\stm32f4xx_dbgmcu.c       0x00000000   Number         0  stm32f4xx_dbgmcu.o ABSOLUTE
    ..\CMSIS\Driver\stm32f4xx_dcmi.c         0x00000000   Number         0  stm32f4xx_dcmi.o ABSOLUTE
    ..\CMSIS\Driver\stm32f4xx_dma.c          0x00000000   Number         0  stm32f4xx_dma.o ABSOLUTE
    ..\CMSIS\Driver\stm32f4xx_exti.c         0x00000000   Number         0  stm32f4xx_exti.o ABSOLUTE
    ..\CMSIS\Driver\stm32f4xx_flash.c        0x00000000   Number         0  stm32f4xx_flash.o ABSOLUTE
    ..\CMSIS\Driver\stm32f4xx_fsmc.c         0x00000000   Number         0  stm32f4xx_fsmc.o ABSOLUTE
    ..\CMSIS\Driver\stm32f4xx_gpio.c         0x00000000   Number         0  stm32f4xx_gpio.o ABSOLUTE
    ..\CMSIS\Driver\stm32f4xx_hash.c         0x00000000   Number         0  stm32f4xx_hash.o ABSOLUTE
    ..\CMSIS\Driver\stm32f4xx_hash_md5.c     0x00000000   Number         0  stm32f4xx_hash_md5.o ABSOLUTE
    ..\CMSIS\Driver\stm32f4xx_hash_sha1.c    0x00000000   Number         0  stm32f4xx_hash_sha1.o ABSOLUTE
    ..\CMSIS\Driver\stm32f4xx_i2c.c          0x00000000   Number         0  stm32f4xx_i2c.o ABSOLUTE
    ..\CMSIS\Driver\stm32f4xx_iwdg.c         0x00000000   Number         0  stm32f4xx_iwdg.o ABSOLUTE
    ..\CMSIS\Driver\stm32f4xx_pwr.c          0x00000000   Number         0  stm32f4xx_pwr.o ABSOLUTE
    ..\CMSIS\Driver\stm32f4xx_rcc.c          0x00000000   Number         0  stm32f4xx_rcc.o ABSOLUTE
    ..\CMSIS\Driver\stm32f4xx_rng.c          0x00000000   Number         0  stm32f4xx_rng.o ABSOLUTE
    ..\CMSIS\Driver\stm32f4xx_rtc.c          0x00000000   Number         0  stm32f4xx_rtc.o ABSOLUTE
    ..\CMSIS\Driver\stm32f4xx_sdio.c         0x00000000   Number         0  stm32f4xx_sdio.o ABSOLUTE
    ..\CMSIS\Driver\stm32f4xx_spi.c          0x00000000   Number         0  stm32f4xx_spi.o ABSOLUTE
    ..\CMSIS\Driver\stm32f4xx_syscfg.c       0x00000000   Number         0  stm32f4xx_syscfg.o ABSOLUTE
    ..\CMSIS\Driver\stm32f4xx_tim.c          0x00000000   Number         0  stm32f4xx_tim.o ABSOLUTE
    ..\CMSIS\Driver\stm32f4xx_usart.c        0x00000000   Number         0  stm32f4xx_usart.o ABSOLUTE
    ..\CMSIS\Driver\stm32f4xx_wwdg.c         0x00000000   Number         0  stm32f4xx_wwdg.o ABSOLUTE
    ..\CO_FESTVAL\GlobalVar.c                0x00000000   Number         0  globalvar.o ABSOLUTE
    ..\Module\M_Delay_P.c                    0x00000000   Number         0  m_delay_p.o ABSOLUTE
    ..\UCOS\Port\os_cpu_a.asm                0x00000000   Number         0  os_cpu_a.o ABSOLUTE
    ..\UCOS\Port\os_cpu_c.c                  0x00000000   Number         0  os_cpu_c.o ABSOLUTE
    ..\UCOS\Port\os_dbg.c                    0x00000000   Number         0  os_dbg.o ABSOLUTE
    ..\UCOS\Source\os_core.c                 0x00000000   Number         0  os_core.o ABSOLUTE
    ..\UCOS\Source\os_flag.c                 0x00000000   Number         0  os_flag.o ABSOLUTE
    ..\UCOS\Source\os_mbox.c                 0x00000000   Number         0  os_mbox.o ABSOLUTE
    ..\UCOS\Source\os_mem.c                  0x00000000   Number         0  os_mem.o ABSOLUTE
    ..\UCOS\Source\os_mutex.c                0x00000000   Number         0  os_mutex.o ABSOLUTE
    ..\UCOS\Source\os_q.c                    0x00000000   Number         0  os_q.o ABSOLUTE
    ..\UCOS\Source\os_sem.c                  0x00000000   Number         0  os_sem.o ABSOLUTE
    ..\UCOS\Source\os_task.c                 0x00000000   Number         0  os_task.o ABSOLUTE
    ..\UCOS\Source\os_time.c                 0x00000000   Number         0  os_time.o ABSOLUTE
    ..\UCOS\Source\os_tmr.c                  0x00000000   Number         0  os_tmr.o ABSOLUTE
    ..\\App\\Main.c                          0x00000000   Number         0  main.o ABSOLUTE
    ..\\App\\Task_ADC.c                      0x00000000   Number         0  task_adc.o ABSOLUTE
    ..\\App\\Task_AVChg.c                    0x00000000   Number         0  task_avchg.o ABSOLUTE
    ..\\App\\Task_CAN1.c                     0x00000000   Number         0  task_can1.o ABSOLUTE
    ..\\App\\Task_CAN2.c                     0x00000000   Number         0  task_can2.o ABSOLUTE
    ..\\App\\Task_EFlash.c                   0x00000000   Number         0  task_eflash.o ABSOLUTE
    ..\\App\\Task_LTC.c                      0x00000000   Number         0  task_ltc.o ABSOLUTE
    ..\\App\\Task_SysCheck.c                 0x00000000   Number         0  task_syscheck.o ABSOLUTE
    ..\\App\\Task_Wifi.c                     0x00000000   Number         0  task_wifi.o ABSOLUTE
    ..\\App\\Task_main.c                     0x00000000   Number         0  task_main.o ABSOLUTE
    ..\\App\\appBMU.c                        0x00000000   Number         0  appbmu.o ABSOLUTE
    ..\\App\\appConfig.c                     0x00000000   Number         0  appconfig.o ABSOLUTE
    ..\\BSP\\24C02.c                         0x00000000   Number         0  24c02.o ABSOLUTE
    ..\\BSP\\BSP_ADC.c                       0x00000000   Number         0  bsp_adc.o ABSOLUTE
    ..\\BSP\\BSP_GPIO.c                      0x00000000   Number         0  bsp_gpio.o ABSOLUTE
    ..\\BSP\\BSP_SCI.c                       0x00000000   Number         0  bsp_sci.o ABSOLUTE
    ..\\BSP\\BSP_WDG.c                       0x00000000   Number         0  bsp_wdg.o ABSOLUTE
    ..\\BSP\\BSP_wifi.c                      0x00000000   Number         0  bsp_wifi.o ABSOLUTE
    ..\\BSP\\Bsp_Global.c                    0x00000000   Number         0  bsp_global.o ABSOLUTE
    ..\\BSP\\DMA.C                           0x00000000   Number         0  dma.o ABSOLUTE
    ..\\BSP\\FlashDriver.c                   0x00000000   Number         0  flashdriver.o ABSOLUTE
    ..\\BSP\\HAL.c                           0x00000000   Number         0  hal.o ABSOLUTE
    ..\\BSP\\NVIC.C                          0x00000000   Number         0  nvic.o ABSOLUTE
    ..\\BSP\\SST25VF016B.c                   0x00000000   Number         0  sst25vf016b.o ABSOLUTE
    ..\\BSP\\bsp_CAN.C                       0x00000000   Number         0  bsp_can.o ABSOLUTE
    ..\\CMSIS\\Core\\system_stm32f4xx.c      0x00000000   Number         0  system_stm32f4xx.o ABSOLUTE
    ..\\CMSIS\\Driver\\misc.c                0x00000000   Number         0  misc.o ABSOLUTE
    ..\\CMSIS\\Driver\\stm32f4xx_adc.c       0x00000000   Number         0  stm32f4xx_adc.o ABSOLUTE
    ..\\CMSIS\\Driver\\stm32f4xx_can.c       0x00000000   Number         0  stm32f4xx_can.o ABSOLUTE
    ..\\CMSIS\\Driver\\stm32f4xx_crc.c       0x00000000   Number         0  stm32f4xx_crc.o ABSOLUTE
    ..\\CMSIS\\Driver\\stm32f4xx_cryp.c      0x00000000   Number         0  stm32f4xx_cryp.o ABSOLUTE
    ..\\CMSIS\\Driver\\stm32f4xx_cryp_aes.c  0x00000000   Number         0  stm32f4xx_cryp_aes.o ABSOLUTE
    ..\\CMSIS\\Driver\\stm32f4xx_cryp_des.c  0x00000000   Number         0  stm32f4xx_cryp_des.o ABSOLUTE
    ..\\CMSIS\\Driver\\stm32f4xx_cryp_tdes.c 0x00000000   Number         0  stm32f4xx_cryp_tdes.o ABSOLUTE
    ..\\CMSIS\\Driver\\stm32f4xx_dac.c       0x00000000   Number         0  stm32f4xx_dac.o ABSOLUTE
    ..\\CMSIS\\Driver\\stm32f4xx_dbgmcu.c    0x00000000   Number         0  stm32f4xx_dbgmcu.o ABSOLUTE
    ..\\CMSIS\\Driver\\stm32f4xx_dcmi.c      0x00000000   Number         0  stm32f4xx_dcmi.o ABSOLUTE
    ..\\CMSIS\\Driver\\stm32f4xx_dma.c       0x00000000   Number         0  stm32f4xx_dma.o ABSOLUTE
    ..\\CMSIS\\Driver\\stm32f4xx_exti.c      0x00000000   Number         0  stm32f4xx_exti.o ABSOLUTE
    ..\\CMSIS\\Driver\\stm32f4xx_flash.c     0x00000000   Number         0  stm32f4xx_flash.o ABSOLUTE
    ..\\CMSIS\\Driver\\stm32f4xx_fsmc.c      0x00000000   Number         0  stm32f4xx_fsmc.o ABSOLUTE
    ..\\CMSIS\\Driver\\stm32f4xx_gpio.c      0x00000000   Number         0  stm32f4xx_gpio.o ABSOLUTE
    ..\\CMSIS\\Driver\\stm32f4xx_hash.c      0x00000000   Number         0  stm32f4xx_hash.o ABSOLUTE
    ..\\CMSIS\\Driver\\stm32f4xx_hash_md5.c  0x00000000   Number         0  stm32f4xx_hash_md5.o ABSOLUTE
    ..\\CMSIS\\Driver\\stm32f4xx_hash_sha1.c 0x00000000   Number         0  stm32f4xx_hash_sha1.o ABSOLUTE
    ..\\CMSIS\\Driver\\stm32f4xx_i2c.c       0x00000000   Number         0  stm32f4xx_i2c.o ABSOLUTE
    ..\\CMSIS\\Driver\\stm32f4xx_iwdg.c      0x00000000   Number         0  stm32f4xx_iwdg.o ABSOLUTE
    ..\\CMSIS\\Driver\\stm32f4xx_pwr.c       0x00000000   Number         0  stm32f4xx_pwr.o ABSOLUTE
    ..\\CMSIS\\Driver\\stm32f4xx_rcc.c       0x00000000   Number         0  stm32f4xx_rcc.o ABSOLUTE
    ..\\CMSIS\\Driver\\stm32f4xx_rng.c       0x00000000   Number         0  stm32f4xx_rng.o ABSOLUTE
    ..\\CMSIS\\Driver\\stm32f4xx_rtc.c       0x00000000   Number         0  stm32f4xx_rtc.o ABSOLUTE
    ..\\CMSIS\\Driver\\stm32f4xx_sdio.c      0x00000000   Number         0  stm32f4xx_sdio.o ABSOLUTE
    ..\\CMSIS\\Driver\\stm32f4xx_spi.c       0x00000000   Number         0  stm32f4xx_spi.o ABSOLUTE
    ..\\CMSIS\\Driver\\stm32f4xx_syscfg.c    0x00000000   Number         0  stm32f4xx_syscfg.o ABSOLUTE
    ..\\CMSIS\\Driver\\stm32f4xx_tim.c       0x00000000   Number         0  stm32f4xx_tim.o ABSOLUTE
    ..\\CMSIS\\Driver\\stm32f4xx_usart.c     0x00000000   Number         0  stm32f4xx_usart.o ABSOLUTE
    ..\\CMSIS\\Driver\\stm32f4xx_wwdg.c      0x00000000   Number         0  stm32f4xx_wwdg.o ABSOLUTE
    ..\\CO_FESTVAL\\GlobalVar.c              0x00000000   Number         0  globalvar.o ABSOLUTE
    ..\\UCOS\\Port\\os_cpu_c.c               0x00000000   Number         0  os_cpu_c.o ABSOLUTE
    ..\\UCOS\\Port\\os_dbg.c                 0x00000000   Number         0  os_dbg.o ABSOLUTE
    ..\\UCOS\\Source\\os_core.c              0x00000000   Number         0  os_core.o ABSOLUTE
    ..\\UCOS\\Source\\os_flag.c              0x00000000   Number         0  os_flag.o ABSOLUTE
    ..\\UCOS\\Source\\os_mbox.c              0x00000000   Number         0  os_mbox.o ABSOLUTE
    ..\\UCOS\\Source\\os_mem.c               0x00000000   Number         0  os_mem.o ABSOLUTE
    ..\\UCOS\\Source\\os_mutex.c             0x00000000   Number         0  os_mutex.o ABSOLUTE
    ..\\UCOS\\Source\\os_q.c                 0x00000000   Number         0  os_q.o ABSOLUTE
    ..\\UCOS\\Source\\os_sem.c               0x00000000   Number         0  os_sem.o ABSOLUTE
    ..\\UCOS\\Source\\os_task.c              0x00000000   Number         0  os_task.o ABSOLUTE
    ..\\UCOS\\Source\\os_time.c              0x00000000   Number         0  os_time.o ABSOLUTE
    ..\\UCOS\\Source\\os_tmr.c               0x00000000   Number         0  os_tmr.o ABSOLUTE
    ..\\codrv\\generic\\codrv_can_generic.c  0x00000000   Number         0  codrv_can_generic.o ABSOLUTE
    ..\\src\\SysTick.C                       0x00000000   Number         0  systick.o ABSOLUTE
    ..\\src\\timer.C                         0x00000000   Number         0  timer.o ABSOLUTE
    ..\codrv\common\can_printf.c             0x00000000   Number         0  can_printf.o ABSOLUTE
    ..\codrv\generic\codrv_can_generic.c     0x00000000   Number         0  codrv_can_generic.o ABSOLUTE
    ..\codrv\generic\codrv_canbittiming.c    0x00000000   Number         0  codrv_canbittiming.o ABSOLUTE
    ..\codrv\generic\codrv_cpu_generic.c     0x00000000   Number         0  codrv_cpu_generic.o ABSOLUTE
    ..\codrv\generic\codrv_error.c           0x00000000   Number         0  codrv_error.o ABSOLUTE
    ..\colib\energybus\eb_battery.c          0x00000000   Number         0  eb_battery.o ABSOLUTE
    ..\colib\energybus\eb_debug.c            0x00000000   Number         0  eb_debug.o ABSOLUTE
    ..\colib\energybus\eb_eeprom.c           0x00000000   Number         0  eb_eeprom.o ABSOLUTE
    ..\colib\energybus\eb_framework.c        0x00000000   Number         0  eb_framework.o ABSOLUTE
    ..\colib\energybus\eb_indication.c       0x00000000   Number         0  eb_indication.o ABSOLUTE
    ..\colib\energybus\eb_state.c            0x00000000   Number         0  eb_state.o ABSOLUTE
    ..\colib\energybus\gen_objdict.c         0x00000000   Number         0  gen_objdict.o ABSOLUTE
    ..\colib\energybus\usr_ind.c             0x00000000   Number         0  usr_ind.o ABSOLUTE
    ..\colib\src\co_candebug.c               0x00000000   Number         0  co_candebug.o ABSOLUTE
    ..\colib\src\co_cobhandler.c             0x00000000   Number         0  co_cobhandler.o ABSOLUTE
    ..\colib\src\co_commtask.c               0x00000000   Number         0  co_commtask.o ABSOLUTE
    ..\colib\src\co_dynod.c                  0x00000000   Number         0  co_dynod.o ABSOLUTE
    ..\colib\src\co_emcy.c                   0x00000000   Number         0  co_emcy.o ABSOLUTE
    ..\colib\src\co_errctrl.c                0x00000000   Number         0  co_errctrl.o ABSOLUTE
    ..\colib\src\co_event.c                  0x00000000   Number         0  co_event.o ABSOLUTE
    ..\colib\src\co_led.c                    0x00000000   Number         0  co_led.o ABSOLUTE
    ..\colib\src\co_lss.c                    0x00000000   Number         0  co_lss.o ABSOLUTE
    ..\colib\src\co_lssmaster.c              0x00000000   Number         0  co_lssmaster.o ABSOLUTE
    ..\colib\src\co_nmt.c                    0x00000000   Number         0  co_nmt.o ABSOLUTE
    ..\colib\src\co_nmtmaster.c              0x00000000   Number         0  co_nmtmaster.o ABSOLUTE
    ..\colib\src\co_nmtslave.c               0x00000000   Number         0  co_nmtslave.o ABSOLUTE
    ..\colib\src\co_odaccess.c               0x00000000   Number         0  co_odaccess.o ABSOLUTE
    ..\colib\src\co_pdo.c                    0x00000000   Number         0  co_pdo.o ABSOLUTE
    ..\colib\src\co_queue.c                  0x00000000   Number         0  co_queue.o ABSOLUTE
    ..\colib\src\co_sdoclient.c              0x00000000   Number         0  co_sdoclient.o ABSOLUTE
    ..\colib\src\co_sdoqueue.c               0x00000000   Number         0  co_sdoqueue.o ABSOLUTE
    ..\colib\src\co_sdoserv.c                0x00000000   Number         0  co_sdoserv.o ABSOLUTE
    ..\colib\src\co_sleep.c                  0x00000000   Number         0  co_sleep.o ABSOLUTE
    ..\colib\src\co_stackinit.c              0x00000000   Number         0  co_stackinit.o ABSOLUTE
    ..\colib\src\co_store.c                  0x00000000   Number         0  co_store.o ABSOLUTE
    ..\colib\src\co_sync.c                   0x00000000   Number         0  co_sync.o ABSOLUTE
    ..\colib\src\co_time.c                   0x00000000   Number         0  co_time.o ABSOLUTE
    ..\colib\src\co_timer.c                  0x00000000   Number         0  co_timer.o ABSOLUTE
    ..\colib\src\co_user.c                   0x00000000   Number         0  co_user.o ABSOLUTE
    ..\src\SysTick.C                         0x00000000   Number         0  systick.o ABSOLUTE
    ..\src\timer.C                           0x00000000   Number         0  timer.o ABSOLUTE
    cdrcmple.s                               0x00000000   Number         0  cdrcmple.o ABSOLUTE
    dc.s                                     0x00000000   Number         0  dc.o ABSOLUTE
    handlers.s                               0x00000000   Number         0  handlers.o ABSOLUTE
    init.s                                   0x00000000   Number         0  init.o ABSOLUTE
    RESET                                    0x08000000   Section      392  startup_stm32f4xx.o(RESET)
    .ARM.Collect$$$$00000000                 0x08000188   Section        0  entry.o(.ARM.Collect$$$$00000000)
    .ARM.Collect$$$$00000001                 0x08000188   Section        4  entry2.o(.ARM.Collect$$$$00000001)
    .ARM.Collect$$$$00000004                 0x0800018c   Section        4  entry5.o(.ARM.Collect$$$$00000004)
    .ARM.Collect$$$$00000008                 0x08000190   Section        0  entry7b.o(.ARM.Collect$$$$00000008)
    .ARM.Collect$$$$00000009                 0x08000190   Section        8  entry8.o(.ARM.Collect$$$$00000009)
    .ARM.Collect$$$$00002712                 0x08000198   Section        4  entry2.o(.ARM.Collect$$$$00002712)
    __lit__00000000                          0x08000198   Data           4  entry2.o(.ARM.Collect$$$$00002712)
    .text                                    0x0800019c   Section        0  main.o(.text)
    .text                                    0x080002c0   Section        0  appbmu.o(.text)
    getTCVal                                 0x080010ad   Thumb Code   316  appbmu.o(.text)
    setBalance                               0x08001ba1   Thumb Code   120  appbmu.o(.text)
    .text                                    0x08001c2c   Section        0  task_can1.o(.text)
    .text                                    0x08001c8c   Section        0  task_adc.o(.text)
    .text                                    0x0800214c   Section        0  task_eflash.o(.text)
    .text                                    0x080022a8   Section        0  appconfig.o(.text)
    .text                                    0x08002388   Section        0  task_main.o(.text)
    bmu_pwer_ctrl                            0x08002429   Thumb Code     2  task_main.o(.text)
    .text                                    0x08002450   Section        0  co_battery.o(.text)
    batVariableInit                          0x08002451   Thumb Code   928  co_battery.o(.text)
    .text                                    0x08002908   Section        0  task_ltc.o(.text)
    spiBtDly                                 0x08002909   Thumb Code    18  task_ltc.o(.text)
    ltc_cmd                                  0x08002bf7   Thumb Code   112  task_ltc.o(.text)
    calaPEC                                  0x08003665   Thumb Code   154  task_ltc.o(.text)
    .text                                    0x08003720   Section        0  task_can2.o(.text)
    CAN_Bm2Bp                                0x0800395b   Thumb Code     2  task_can2.o(.text)
    CAN_Bp2Vcu                               0x0800395d   Thumb Code     2  task_can2.o(.text)
    insCellInfo                              0x080039c5   Thumb Code     2  task_can2.o(.text)
    .text                                    0x08003a08   Section        0  bsp_global.o(.text)
    .text                                    0x08003a40   Section        0  nvic.o(.text)
    .text                                    0x08003bdc   Section        0  bsp_gpio.o(.text)
    LED_Delay                                0x08003d75   Thumb Code    14  bsp_gpio.o(.text)
    .text                                    0x08003e10   Section        0  bsp_can.o(.text)
    .text                                    0x0800403c   Section        0  bsp_adc.o(.text)
    .text                                    0x08004264   Section        0  bsp_sci.o(.text)
    .text                                    0x08004600   Section        0  dma.o(.text)
    NVIC_EnableIRQ                           0x08004819   Thumb Code    24  dma.o(.text)
    .text                                    0x08004854   Section        0  flashdriver.o(.text)
    .text                                    0x080048e0   Section        0  sst25vf016b.o(.text)
    .text                                    0x0800515c   Section        0  bsp_wdg.o(.text)
    .text                                    0x08005188   Section        0  bsp_wifi.o(.text)
    .text                                    0x080057e8   Section        0  misc.o(.text)
    .text                                    0x080058cc   Section        0  stm32f4xx_adc.o(.text)
    .text                                    0x08005d40   Section        0  stm32f4xx_can.o(.text)
    CheckITStatus                            0x0800654b   Thumb Code    16  stm32f4xx_can.o(.text)
    .text                                    0x08006734   Section        0  stm32f4xx_dma.o(.text)
    .text                                    0x08006ae4   Section        0  stm32f4xx_gpio.o(.text)
    .text                                    0x08006d30   Section        0  stm32f4xx_iwdg.o(.text)
    .text                                    0x08006d70   Section        0  stm32f4xx_rcc.o(.text)
    .text                                    0x080072e8   Section        0  stm32f4xx_rng.o(.text)
    .text                                    0x08007388   Section        0  stm32f4xx_spi.o(.text)
    .text                                    0x08007788   Section        0  stm32f4xx_tim.o(.text)
    TI4_Config                               0x08007f0d   Thumb Code    68  stm32f4xx_tim.o(.text)
    TI3_Config                               0x08007f63   Thumb Code    64  stm32f4xx_tim.o(.text)
    TI2_Config                               0x08007fb9   Thumb Code    68  stm32f4xx_tim.o(.text)
    TI1_Config                               0x0800800f   Thumb Code    68  stm32f4xx_tim.o(.text)
    .text                                    0x080083f8   Section        0  stm32f4xx_usart.o(.text)
    .text                                    0x0800881c   Section       36  startup_stm32f4xx.o(.text)
    $v0                                      0x0800881c   Number         0  startup_stm32f4xx.o(.text)
    .text                                    0x08008840   Section        0  system_stm32f4xx.o(.text)
    SetSysClock                              0x08008841   Thumb Code   214  system_stm32f4xx.o(.text)
    .text                                    0x08008a4c   Section      196  os_cpu_a.o(.text)
    $v0                                      0x08008a4c   Number         0  os_cpu_a.o(.text)
    .text                                    0x08008b10   Section        0  os_cpu_c.o(.text)
    .text                                    0x08008c5c   Section        0  os_core.o(.text)
    OS_SchedNew                              0x08008d63   Thumb Code    26  os_core.o(.text)
    OS_InitTaskStat                          0x080091cb   Thumb Code    52  os_core.o(.text)
    OS_InitTaskIdle                          0x0800921f   Thumb Code    52  os_core.o(.text)
    OS_InitEventList                         0x08009265   Thumb Code    60  os_core.o(.text)
    OS_InitTCBList                           0x080092a1   Thumb Code    72  os_core.o(.text)
    OS_InitRdyList                           0x080092e9   Thumb Code    46  os_core.o(.text)
    OS_InitMisc                              0x08009317   Thumb Code    44  os_core.o(.text)
    .text                                    0x08009948   Section        0  os_flag.o(.text)
    OS_FlagTaskRdy                           0x08009abf   Thumb Code    96  os_flag.o(.text)
    OS_FlagBlock                             0x08009c87   Thumb Code   132  os_flag.o(.text)
    .text                                    0x0800a140   Section        0  os_mem.o(.text)
    .text                                    0x0800a314   Section        0  os_q.o(.text)
    .text                                    0x0800a8f8   Section        0  os_sem.o(.text)
    .text                                    0x0800aca0   Section        0  os_task.o(.text)
    .text                                    0x0800b4dc   Section        0  os_time.o(.text)
    .text                                    0x0800b680   Section        0  systick.o(.text)
    .text                                    0x0800b738   Section        0  timer.o(.text)
    .text                                    0x0800b8c4   Section        0  co_cobhandler.o(.text)
    .text                                    0x0800bbd4   Section        0  co_commtask.o(.text)
    receiveMessageHandler                    0x0800bbd5   Thumb Code   144  co_commtask.o(.text)
    serviceManagement                        0x0800bc65   Thumb Code    54  co_commtask.o(.text)
    .text                                    0x0800be3c   Section        0  co_emcy.o(.text)
    .text                                    0x0800c10c   Section        0  co_errctrl.o(.text)
    setupHbConsumer                          0x0800c10d   Thumb Code   102  co_errctrl.o(.text)
    hbConsFailure                            0x0800c253   Thumb Code    38  co_errctrl.o(.text)
    hbProdSendMessage                        0x0800c2ed   Thumb Code    28  co_errctrl.o(.text)
    .text                                    0x0800c72c   Section        0  co_event.o(.text)
    .text                                    0x0800c7b4   Section        0  co_lss.o(.text)
    lssIdentSlave                            0x0800c7b5   Thumb Code   298  co_lss.o(.text)
    lssSwitchSelective                       0x0800c8df   Thumb Code   194  co_lss.o(.text)
    lssEvent                                 0x0800c9a1   Thumb Code    46  co_lss.o(.text)
    bitrateSwitchFct                         0x0800c9cf   Thumb Code    68  co_lss.o(.text)
    lssBitrateActivate                       0x0800ca13   Thumb Code    44  co_lss.o(.text)
    lssInquireService                        0x0800ca3f   Thumb Code   192  co_lss.o(.text)
    lssSwitschGlobal                         0x0800caff   Thumb Code    94  co_lss.o(.text)
    lssStoreReceived                         0x0800cb5d   Thumb Code   144  co_lss.o(.text)
    lssBitrateReceived                       0x0800cbed   Thumb Code   128  co_lss.o(.text)
    lssNodeIdReceived                        0x0800cc6d   Thumb Code   104  co_lss.o(.text)
    lssSlaveIdentify                         0x0800ccd5   Thumb Code    28  co_lss.o(.text)
    lssFastScan                              0x0800ccf1   Thumb Code   186  co_lss.o(.text)
    .text                                    0x0800cfb8   Section        0  co_nmt.o(.text)
    nmtReset                                 0x0800d035   Thumb Code    32  co_nmt.o(.text)
    nmtResetComm                             0x0800d06b   Thumb Code   146  co_nmt.o(.text)
    nmtResetAppl                             0x0800d0fd   Thumb Code    34  co_nmt.o(.text)
    .text                                    0x0800d31c   Section        0  co_odaccess.o(.text)
    odGetObjAddr                             0x0800d61b   Thumb Code   778  co_odaccess.o(.text)
    checkObjValue_u32                        0x0800d9ff   Thumb Code   232  co_odaccess.o(.text)
    odGetObjDescIdx                          0x0800dae7   Thumb Code   246  co_odaccess.o(.text)
    odGetObjAddr_R                           0x0800dd69   Thumb Code   212  co_odaccess.o(.text)
    checkObjValue_u8                         0x0800e211   Thumb Code   210  co_odaccess.o(.text)
    checkObjLimits_u16                       0x0800e3c7   Thumb Code    56  co_odaccess.o(.text)
    checkObjValue_u16                        0x0800e3ff   Thumb Code   122  co_odaccess.o(.text)
    odCheckObjLimitsOther                    0x0800e75b   Thumb Code   354  co_odaccess.o(.text)
    .text                                    0x0800f2e0   Section        0  co_pdo.o(.text)
    pdoTransmitData                          0x0800f2e1   Thumb Code   140  co_pdo.o(.text)
    checkTrPdoMappingTable                   0x0800f719   Thumb Code   176  co_pdo.o(.text)
    pdoEventTimer                            0x0800f85d   Thumb Code    16  co_pdo.o(.text)
    setupTrPdoTimer                          0x0800f86d   Thumb Code    86  co_pdo.o(.text)
    setPdoCob                                0x0800f8c3   Thumb Code    52  co_pdo.o(.text)
    .text                                    0x0800fc18   Section        0  co_queue.o(.text)
    addToTransmitList                        0x0800fd49   Thumb Code    34  co_queue.o(.text)
    addToInhibitList                         0x0800fd6b   Thumb Code    16  co_queue.o(.text)
    searchLastMessage                        0x0800fd7b   Thumb Code    78  co_queue.o(.text)
    getNextTransBuf                          0x0800fdc9   Thumb Code    56  co_queue.o(.text)
    moveInhibitToTransmitList                0x0800ff97   Thumb Code    98  co_queue.o(.text)
    inhibitTimer                             0x08010057   Thumb Code    14  co_queue.o(.text)
    .text                                    0x080101c8   Section        0  co_sdoserv.o(.text)
    sdoCodeMultiplexer                       0x080101c9   Thumb Code    16  co_sdoserv.o(.text)
    sdoServerReadSegment                     0x08010255   Thumb Code   182  co_sdoserv.o(.text)
    sdoServerReadIndCont                     0x0801030b   Thumb Code   146  co_sdoserv.o(.text)
    sdoServerReadInit                        0x08010405   Thumb Code   110  co_sdoserv.o(.text)
    sdoServerWriteIndCont                    0x08010473   Thumb Code   120  co_sdoserv.o(.text)
    sdoServerWriteSegment                    0x0801054f   Thumb Code   250  co_sdoserv.o(.text)
    sdoServerWriteInit                       0x080106ab   Thumb Code   442  co_sdoserv.o(.text)
    searchSdoServerIndex                     0x08010913   Thumb Code    44  co_sdoserv.o(.text)
    .text                                    0x08010d54   Section        0  co_sleep.o(.text)
    callSleepInd                             0x08010d55   Thumb Code    52  co_sleep.o(.text)
    sleepDoze                                0x08010d89   Thumb Code    30  co_sleep.o(.text)
    sleepSilent                              0x08010da7   Thumb Code    48  co_sleep.o(.text)
    sleepWakeUpMessage                       0x08010e89   Thumb Code    36  co_sleep.o(.text)
    .text                                    0x080110a0   Section        0  co_stackinit.o(.text)
    .text                                    0x080110f4   Section        0  co_store.o(.text)
    .text                                    0x08011158   Section        0  co_sync.o(.text)
    syncFinishedInd                          0x08011159   Thumb Code    30  co_sync.o(.text)
    syncInd                                  0x08011177   Thumb Code    30  co_sync.o(.text)
    syncEventTimer                           0x080111ad   Thumb Code    94  co_sync.o(.text)
    .text                                    0x080114d8   Section        0  co_timer.o(.text)
    addTimer                                 0x080114d9   Thumb Code   100  co_timer.o(.text)
    .text                                    0x08011694   Section        0  codrv_can_generic.o(.text)
    codrvSendTestMessage                     0x08011695   Thumb Code     2  codrv_can_generic.o(.text)
    codrvCanGetBtrSettings                   0x0801169b   Thumb Code    44  codrv_can_generic.o(.text)
    codrvCanInitController                   0x080116f9   Thumb Code    42  codrv_can_generic.o(.text)
    codrvCanTransmit                         0x08011743   Thumb Code    30  codrv_can_generic.o(.text)
    codrvCanErrorHandler                     0x080117e9   Thumb Code    44  codrv_can_generic.o(.text)
    .text                                    0x08011830   Section        0  codrv_cpu_generic.o(.text)
    .text                                    0x08011850   Section        0  codrv_error.o(.text)
    .text                                    0x08011930   Section        0  eb_battery.o(.text)
    .text                                    0x08011be4   Section        0  eb_eeprom.o(.text)
    .text                                    0x08011c6c   Section        0  eb_framework.o(.text)
    ebRequestData                            0x08011f05   Thumb Code    82  eb_framework.o(.text)
    setupRecPdoMSN                           0x0801210d   Thumb Code   190  eb_framework.o(.text)
    responseTransferNodeId                   0x08012271   Thumb Code    22  eb_framework.o(.text)
    responseTransferWriteData                0x08012287   Thumb Code    34  eb_framework.o(.text)
    responseTransferData                     0x080122a9   Thumb Code    58  eb_framework.o(.text)
    .text                                    0x08012350   Section        0  eb_indication.o(.text)
    ebSyncFinishedInd                        0x080123b3   Thumb Code    18  eb_indication.o(.text)
    ebSyncInd                                0x080123c5   Thumb Code    18  eb_indication.o(.text)
    ebSdoReadInd                             0x080123d7   Thumb Code    40  eb_indication.o(.text)
    ebSdoWriteInd                            0x080123ff   Thumb Code   152  eb_indication.o(.text)
    ebErrCtrlInd                             0x08012497   Thumb Code   180  eb_indication.o(.text)
    ebNmtInd                                 0x0801254b   Thumb Code   120  eb_indication.o(.text)
    .text                                    0x080127a4   Section        0  eb_state.o(.text)
    nextStateChange                          0x080127a5   Thumb Code   110  eb_state.o(.text)
    lssGoSleep                               0x08012813   Thumb Code    54  eb_state.o(.text)
    .text                                    0x08012b18   Section        0  gen_objdict.o(.text)
    .text                                    0x08012c44   Section        0  usr_ind.o(.text)
    .text                                    0x08012c7c   Section        0  uldiv.o(.text)
    .text                                    0x08012cde   Section        0  memcpya.o(.text)
    .text                                    0x08012d02   Section        0  memseta.o(.text)
    .text                                    0x08012d28   Section        0  strlen.o(.text)
    .text                                    0x08012d38   Section        0  strncmp.o(.text)
    .text                                    0x08012d56   Section        0  dmul.o(.text)
    .text                                    0x08012e36   Section        0  ddiv.o(.text)
    .text                                    0x08012f14   Section        0  dfltui.o(.text)
    .text                                    0x08012f2e   Section        0  d2f.o(.text)
    .text                                    0x08012f66   Section        0  llshl.o(.text)
    .text                                    0x08012f84   Section        0  llushr.o(.text)
    .text                                    0x08012fa4   Section        0  fepilogue.o(.text)
    .text                                    0x08012fa4   Section        0  iusefp.o(.text)
    .text                                    0x08013010   Section        0  depilogue.o(.text)
    .text                                    0x080130d0   Section       36  init.o(.text)
    .text                                    0x080130f4   Section        0  __dczerorl2.o(.text)
    i.__0sprintf$5                           0x08013150   Section        0  printf5.o(i.__0sprintf$5)
    i.__scatterload_copy                     0x08013178   Section       14  handlers.o(i.__scatterload_copy)
    i.__scatterload_null                     0x08013186   Section        2  handlers.o(i.__scatterload_null)
    i.__scatterload_zeroinit                 0x08013188   Section       14  handlers.o(i.__scatterload_zeroinit)
    i._printf_core                           0x08013198   Section        0  printf5.o(i._printf_core)
    _printf_core                             0x08013199   Thumb Code   676  printf5.o(i._printf_core)
    i._sputc                                 0x08013468   Section        0  printf5.o(i._sputc)
    _sputc                                   0x08013469   Thumb Code    10  printf5.o(i._sputc)
    .constdata                               0x08013474   Section       22  appbmu.o(.constdata)
    .constdata                               0x0801348c   Section       10  task_main.o(.constdata)
    .constdata                               0x08013498   Section      360  bsp_can.o(.constdata)
    .constdata                               0x08013600   Section      256  os_core.o(.constdata)
    .constdata                               0x08013700   Section       64  co_cobhandler.o(.constdata)
    restrictCobs                             0x08013700   Data          64  co_cobhandler.o(.constdata)
    .constdata                               0x08013740   Section       36  co_commtask.o(.constdata)
    commTable                                0x08013740   Data          36  co_commtask.o(.constdata)
    .constdata                               0x08013764   Section       20  co_lss.o(.constdata)
    bitTable                                 0x08013764   Data          20  co_lss.o(.constdata)
    .constdata                               0x08013778   Section      208  co_sdoserv.o(.constdata)
    abortCodeTable                           0x08013778   Data         208  co_sdoserv.o(.constdata)
    .constdata                               0x08013848   Section       80  codrv_can_generic.o(.constdata)
    codrvCanBittimingTable                   0x08013848   Data          80  codrv_can_generic.o(.constdata)
    .constdata                               0x08013898   Section       24  eb_battery.o(.constdata)
    .constdata                               0x080138b0   Section      168  eb_framework.o(.constdata)
    .constdata                               0x08013958   Section       24  eb_state.o(.constdata)
    .constdata                               0x08013970   Section     3420  gen_objdict.o(.constdata)
    od_const_u8                              0x08013970   Data          10  gen_objdict.o(.constdata)
    od_const_u16                             0x0801397a   Data           8  gen_objdict.o(.constdata)
    od_const_u32                             0x08013984   Data         148  gen_objdict.o(.constdata)
    od_const_i8                              0x08013a18   Data           1  gen_objdict.o(.constdata)
    od_const_i16                             0x08013a1a   Data           2  gen_objdict.o(.constdata)
    od_const_i32                             0x08013a1c   Data          16  gen_objdict.o(.constdata)
    od_const_r32                             0x08013a2c   Data           4  gen_objdict.o(.constdata)
    od_ptr_u8                                0x08013a30   Data          72  gen_objdict.o(.constdata)
    od_ptr_u16                               0x08013a78   Data          60  gen_objdict.o(.constdata)
    od_ptr_u32                               0x08013ab4   Data          28  gen_objdict.o(.constdata)
    od_ptr_i8                                0x08013ad0   Data          16  gen_objdict.o(.constdata)
    od_ptr_i16                               0x08013ae0   Data          24  gen_objdict.o(.constdata)
    od_ptr_i32                               0x08013af8   Data          36  gen_objdict.o(.constdata)
    od_ptr_r32                               0x08013b1c   Data          60  gen_objdict.o(.constdata)
    mapTableTPDO18                           0x080145a8   Data          52  gen_objdict.o(.constdata)
    mapTableTPDO145                          0x080145dc   Data          52  gen_objdict.o(.constdata)
    mapTableTPDO272                          0x08014610   Data          52  gen_objdict.o(.constdata)
    .data                                    0x20000000   Section        4  main.o(.data)
    .data                                    0x20000004   Section        3  appbmu.o(.data)
    SOC_OCV_AjuestAllowed                    0x20000004   Data           1  appbmu.o(.data)
    plimcMode                                0x20000005   Data           1  appbmu.o(.data)
    plimdMode                                0x20000006   Data           1  appbmu.o(.data)
    .data                                    0x20000008   Section       24  task_can1.o(.data)
    t_co                                     0x20000008   Data           4  task_can1.o(.data)
    CO_tid                                   0x2000000c   Data           1  task_can1.o(.data)
    t_stat                                   0x20000010   Data           4  task_can1.o(.data)
    loop_cnt                                 0x20000014   Data           4  task_can1.o(.data)
    pollBmuNum                               0x20000018   Data           1  task_can1.o(.data)
    svrNodeId                                0x20000019   Data           1  task_can1.o(.data)
    .data                                    0x20000020   Section      200  task_adc.o(.data)
    .data                                    0x200000e8   Section        4  task_avchg.o(.data)
    .data                                    0x200000ec   Section       32  task_main.o(.data)
    tskmain_lpcnt                            0x200000ec   Data           4  task_main.o(.data)
    tc_chk_id                                0x200000f0   Data           1  task_main.o(.data)
    lastCmd                                  0x200000f1   Data           1  task_main.o(.data)
    pulse_stat                               0x200000f2   Data           1  task_main.o(.data)
    lp                                       0x200000f4   Data           2  task_main.o(.data)
    tskTm                                    0x200000f8   Data           4  task_main.o(.data)
    .data                                    0x2000010c   Section       24  task_syscheck.o(.data)
    vcu_lose_cnt                             0x20000110   Data           2  task_syscheck.o(.data)
    bmu_lose_cnt                             0x20000112   Data           2  task_syscheck.o(.data)
    idleStartTime                            0x20000114   Data           4  task_syscheck.o(.data)
    .data                                    0x20000128   Section       28  task_ltc.o(.data)
    batteryTaskId                            0x2000012a   Data           1  task_ltc.o(.data)
    isFirstTimeLoseComm                      0x20000130   Data           8  task_ltc.o(.data)
    u1TxCheckSum                             0x20000138   Data           1  task_ltc.o(.data)
    CVGrp_query                              0x20000139   Data           1  task_ltc.o(.data)
    CTGrp_query                              0x2000013a   Data           1  task_ltc.o(.data)
    queryTempId                              0x2000013b   Data           1  task_ltc.o(.data)
    queryLTCId                               0x2000013c   Data           1  task_ltc.o(.data)
    statTimer                                0x20000140   Data           4  task_ltc.o(.data)
    .data                                    0x20000144   Section       20  task_can2.o(.data)
    isAddrSent                               0x20000144   Data           1  task_can2.o(.data)
    C1RdPoint                                0x20000145   Data           1  task_can2.o(.data)
    C2RdPoint                                0x20000146   Data           1  task_can2.o(.data)
    .data                                    0x20000158   Section       13  bsp_can.o(.data)
    wtPt                                     0x2000015c   Data           1  bsp_can.o(.data)
    .data                                    0x20000168   Section        5  bsp_adc.o(.data)
    .data                                    0x20000170   Section       22  bsp_sci.o(.data)
    .data                                    0x20000186   Section        2  dma.o(.data)
    .data                                    0x20000188   Section        8  flashdriver.o(.data)
    CurReadAddr                              0x20000188   Data           4  flashdriver.o(.data)
    CurWriteAddr                             0x2000018c   Data           4  flashdriver.o(.data)
    .data                                    0x20000190   Section        2  bsp_wifi.o(.data)
    .data                                    0x20000192   Section       16  stm32f4xx_rcc.o(.data)
    APBAHBPrescTable                         0x20000192   Data          16  stm32f4xx_rcc.o(.data)
    .data                                    0x200001a4   Section       20  system_stm32f4xx.o(.data)
    .data                                    0x200001b8   Section       76  os_core.o(.data)
    .data                                    0x20000204   Section        4  systick.o(.data)
    .data                                    0x20000208   Section        8  timer.o(.data)
    .data                                    0x20000210   Section        2  co_cobhandler.o(.data)
    cobRefCnt                                0x20000210   Data           2  co_cobhandler.o(.data)
    .data                                    0x20000214   Section       16  co_commtask.o(.data)
    eventFlagMsg                             0x20000214   Data           1  co_commtask.o(.data)
    eventFlagTimer                           0x20000215   Data           1  co_commtask.o(.data)
    eventFlagEventHandler                    0x20000216   Data           1  co_commtask.o(.data)
    canState                                 0x20000217   Data           1  co_commtask.o(.data)
    recQuState                               0x20000218   Data           1  co_commtask.o(.data)
    trQuState                                0x20000219   Data           1  co_commtask.o(.data)
    canStateTableCnt                         0x2000021a   Data           1  co_commtask.o(.data)
    commEventTableCnt                        0x2000021b   Data           1  co_commtask.o(.data)
    canStateTable                            0x2000021c   Data           4  co_commtask.o(.data)
    commEventTable                           0x20000220   Data           4  co_commtask.o(.data)
    .data                                    0x20000224   Section       16  co_emcy.o(.data)
    emcyCobId                                0x20000224   Data           4  co_emcy.o(.data)
    errorHistoryCnt                          0x20000228   Data           1  co_emcy.o(.data)
    inhibit                                  0x2000022a   Data           2  co_emcy.o(.data)
    emcyCob                                  0x2000022c   Data           2  co_emcy.o(.data)
    errorHistory                             0x20000230   Data           4  co_emcy.o(.data)
    .data                                    0x20000234   Section       12  co_errctrl.o(.data)
    errCtrlTableCnt                          0x20000234   Data           1  co_errctrl.o(.data)
    errorBehavior                            0x20000235   Data           1  co_errctrl.o(.data)
    errCtrlTable                             0x20000238   Data           4  co_errctrl.o(.data)
    errCtrlCob                               0x2000023c   Data           2  co_errctrl.o(.data)
    hbProdTime                               0x2000023e   Data           2  co_errctrl.o(.data)
    .data                                    0x20000240   Section        4  co_event.o(.data)
    pCoEvent                                 0x20000240   Data           4  co_event.o(.data)
    .data                                    0x20000244   Section       24  co_lss.o(.data)
    lssNewNodeId                             0x20000244   Data           1  co_lss.o(.data)
    lssEventTableCnt                         0x20000246   Data           2  co_lss.o(.data)
    lssPos                                   0x20000248   Data           1  co_lss.o(.data)
    nextCmd                                  0x20000249   Data           1  co_lss.o(.data)
    nextCmd                                  0x2000024a   Data           1  co_lss.o(.data)
    lssTransCob                              0x2000024c   Data           2  co_lss.o(.data)
    lssRecCob                                0x2000024e   Data           2  co_lss.o(.data)
    lssState                                 0x20000250   Data           1  co_lss.o(.data)
    lssPendingNodeId                         0x20000251   Data           1  co_lss.o(.data)
    lssPendingBitrate                        0x20000252   Data           2  co_lss.o(.data)
    bitrateSwitch                            0x20000254   Data           1  co_lss.o(.data)
    lssEventTable                            0x20000258   Data           4  co_lss.o(.data)
    .data                                    0x2000025c   Section       16  co_nmt.o(.data)
    nodeId                                   0x2000025c   Data           1  co_nmt.o(.data)
    nmtState                                 0x2000025d   Data           1  co_nmt.o(.data)
    nmtTableCnt                              0x2000025e   Data           1  co_nmt.o(.data)
    nmtTable                                 0x20000260   Data           4  co_nmt.o(.data)
    nmtCob                                   0x20000264   Data           2  co_nmt.o(.data)
    persistantNodeId                         0x20000266   Data           1  co_nmt.o(.data)
    nodeIdFunction                           0x20000268   Data           4  co_nmt.o(.data)
    .data                                    0x2000026c   Section      132  co_odaccess.o(.data)
    pOdConst_u8                              0x2000026c   Data           4  co_odaccess.o(.data)
    pOdConst_u16                             0x20000270   Data           4  co_odaccess.o(.data)
    pOdConst_u32                             0x20000274   Data           4  co_odaccess.o(.data)
    pOdConst_r32                             0x20000278   Data           4  co_odaccess.o(.data)
    pOdVar_u8                                0x2000027c   Data           4  co_odaccess.o(.data)
    pOdVar_u16                               0x20000280   Data           4  co_odaccess.o(.data)
    pOdVar_u32                               0x20000284   Data           4  co_odaccess.o(.data)
    pOdVar_r32                               0x20000288   Data           4  co_odaccess.o(.data)
    pOdConst_i8                              0x2000028c   Data           4  co_odaccess.o(.data)
    pOdConst_i16                             0x20000290   Data           4  co_odaccess.o(.data)
    pOdConst_i32                             0x20000294   Data           4  co_odaccess.o(.data)
    pOdVar_i8                                0x20000298   Data           4  co_odaccess.o(.data)
    pOdVar_i16                               0x2000029c   Data           4  co_odaccess.o(.data)
    pOdVar_i32                               0x200002a0   Data           4  co_odaccess.o(.data)
    pOdPtr_u8                                0x200002a4   Data           4  co_odaccess.o(.data)
    pOdPtr_u16                               0x200002a8   Data           4  co_odaccess.o(.data)
    pOdPtr_u32                               0x200002ac   Data           4  co_odaccess.o(.data)
    pOdPtr_i8                                0x200002b0   Data           4  co_odaccess.o(.data)
    pOdPtr_i16                               0x200002b4   Data           4  co_odaccess.o(.data)
    pOdPtr_i32                               0x200002b8   Data           4  co_odaccess.o(.data)
    pOdPtr_r32                               0x200002bc   Data           4  co_odaccess.o(.data)
    pOdConst_VS                              0x200002c0   Data           4  co_odaccess.o(.data)
    pOdConst_VS_Len                          0x200002c4   Data           4  co_odaccess.o(.data)
    pOdPtr_VS                                0x200002c8   Data           4  co_odaccess.o(.data)
    pOdPtr_VS_Len                            0x200002cc   Data           4  co_odaccess.o(.data)
    pOdPtr_OS                                0x200002d0   Data           4  co_odaccess.o(.data)
    pOdLen_OS                                0x200002d4   Data           4  co_odaccess.o(.data)
    pOdPtr_Domain                            0x200002d8   Data           4  co_odaccess.o(.data)
    pOdLen_Domain                            0x200002dc   Data           4  co_odaccess.o(.data)
    loadParameterState                       0x200002e0   Data           1  co_odaccess.o(.data)
    pOdAssingTable                           0x200002e4   Data           4  co_odaccess.o(.data)
    odAssignCnt                              0x200002e8   Data           2  co_odaccess.o(.data)
    pObjDescTable                            0x200002ec   Data           4  co_odaccess.o(.data)
    .data                                    0x200002f0   Section        2  co_pdo.o(.data)
    pdoTrCnt                                 0x200002f0   Data           2  co_pdo.o(.data)
    .data                                    0x200002f4   Section       18  co_queue.o(.data)
    recBufferWrCnt                           0x200002f4   Data           2  co_queue.o(.data)
    recBufferRdCnt                           0x200002f6   Data           2  co_queue.o(.data)
    drvBufAccess                             0x200002f8   Data           1  co_queue.o(.data)
    pInhibitList                             0x200002fc   Data           4  co_queue.o(.data)
    pTransmitList                            0x20000300   Data           4  co_queue.o(.data)
    recBufFull                               0x20000304   Data           1  co_queue.o(.data)
    queueDisabled                            0x20000305   Data           1  co_queue.o(.data)
    .data                                    0x20000308   Section       16  co_sdoserv.o(.data)
    sdoServerCnt                             0x20000308   Data           1  co_sdoserv.o(.data)
    sdoServerReadTableCnt                    0x20000309   Data           1  co_sdoserv.o(.data)
    sdoServerWriteTableCnt                   0x2000030a   Data           1  co_sdoserv.o(.data)
    sdoServerCheckWriteTableCnt              0x2000030b   Data           1  co_sdoserv.o(.data)
    sdoServerReadTable                       0x2000030c   Data           4  co_sdoserv.o(.data)
    sdoServerWriteTable                      0x20000310   Data           4  co_sdoserv.o(.data)
    sdoServerCheckWriteTable                 0x20000314   Data           4  co_sdoserv.o(.data)
    .data                                    0x20000318   Section       18  co_sleep.o(.data)
    sleepTableCnt                            0x20000318   Data           1  co_sleep.o(.data)
    sleepActive                              0x20000319   Data           1  co_sleep.o(.data)
    wakeUpData                               0x2000031a   Data           4  co_sleep.o(.data)
    sleepTable                               0x20000320   Data           4  co_sleep.o(.data)
    sleepMasterCob                           0x20000324   Data           2  co_sleep.o(.data)
    sleepSlaveCob                            0x20000326   Data           2  co_sleep.o(.data)
    sleepRequestCob                          0x20000328   Data           2  co_sleep.o(.data)
    .data                                    0x2000032c   Section        8  co_store.o(.data)
    storeCnt                                 0x2000032c   Data           2  co_store.o(.data)
    storeLoadFunction                        0x20000330   Data           4  co_store.o(.data)
    .data                                    0x20000334   Section       32  co_sync.o(.data)
    syncCobId                                0x20000334   Data           4  co_sync.o(.data)
    cyclePeriod                              0x20000338   Data           4  co_sync.o(.data)
    counterValue                             0x2000033c   Data           1  co_sync.o(.data)
    actCounterValue                          0x2000033d   Data           1  co_sync.o(.data)
    windowLength                             0x20000340   Data           4  co_sync.o(.data)
    syncEventTableCnt                        0x20000344   Data           2  co_sync.o(.data)
    syncFinishedEventTableCnt                0x20000346   Data           2  co_sync.o(.data)
    syncCob                                  0x20000348   Data           2  co_sync.o(.data)
    syncEventTable                           0x2000034c   Data           4  co_sync.o(.data)
    syncFinishedEventTable                   0x20000350   Data           4  co_sync.o(.data)
    .data                                    0x20000354   Section       12  co_timer.o(.data)
    timerInterVal                            0x20000354   Data           4  co_timer.o(.data)
    pCoTimer                                 0x20000358   Data           4  co_timer.o(.data)
    actTick                                  0x2000035c   Data           4  co_timer.o(.data)
    .data                                    0x20000360   Section        8  codrv_can_generic.o(.data)
    canEnabled                               0x20000360   Data           1  codrv_can_generic.o(.data)
    transmissionIsActive                     0x20000361   Data           1  codrv_can_generic.o(.data)
    pTxBuf                                   0x20000364   Data           4  codrv_can_generic.o(.data)
    .data                                    0x20000368   Section        6  codrv_error.o(.data)
    canErrorFlags                            0x20000368   Data           6  codrv_error.o(.data)
    .data                                    0x20000370   Section        8  eb_battery.o(.data)
    batStateTable                            0x20000370   Data           4  eb_battery.o(.data)
    batCheckStateTable                       0x20000374   Data           4  eb_battery.o(.data)
    .data                                    0x20000378   Section        8  eb_eeprom.o(.data)
    loadTable                                0x20000378   Data           4  eb_eeprom.o(.data)
    saveTable                                0x2000037c   Data           4  eb_eeprom.o(.data)
    .data                                    0x20000380   Section       12  eb_framework.o(.data)
    .data                                    0x2000038c   Section       36  eb_indication.o(.data)
    pApplLoadFunction                        0x2000038c   Data           4  eb_indication.o(.data)
    nmtTable                                 0x20000390   Data           4  eb_indication.o(.data)
    ebcMonTable                              0x20000394   Data           4  eb_indication.o(.data)
    syncTable                                0x20000398   Data           4  eb_indication.o(.data)
    syncFinishedTable                        0x2000039c   Data           4  eb_indication.o(.data)
    sdoWriteTable                            0x200003a0   Data           4  eb_indication.o(.data)
    sdoReadTable                             0x200003a4   Data           4  eb_indication.o(.data)
    pdoTable                                 0x200003a8   Data           4  eb_indication.o(.data)
    sleepTable                               0x200003ac   Data           4  eb_indication.o(.data)
    .data                                    0x200003b0   Section        8  eb_state.o(.data)
    stateTable                               0x200003b0   Data           4  eb_state.o(.data)
    checkStateTable                          0x200003b4   Data           4  eb_state.o(.data)
    .data                                    0x200003b8   Section        6  gen_objdict.o(.data)
    od_u8                                    0x200003b8   Data           4  gen_objdict.o(.data)
    od_u16                                   0x200003bc   Data           2  gen_objdict.o(.data)
    .bss                                     0x200003c0   Section     4068  main.o(.bss)
    .bss                                     0x200013a8   Section     1400  appbmu.o(.bss)
    tm_rem_s                                 0x200013a8   Data          80  appbmu.o(.bss)
    tm_rem_r                                 0x200013f8   Data          80  appbmu.o(.bss)
    .bss                                     0x20001920   Section    16000  task_can1.o(.bss)
    .bss                                     0x200057a0   Section       84  task_adc.o(.bss)
    .bss                                     0x200057f4   Section     8492  task_main.o(.bss)
    .bss                                     0x20007920   Section     9296  task_ltc.o(.bss)
    .bss                                     0x20009d70   Section     4800  task_can2.o(.bss)
    .bss                                     0x2000b030   Section     1240  bsp_can.o(.bss)
    .bss                                     0x2000b508   Section       96  bsp_adc.o(.bss)
    .bss                                     0x2000b568   Section     2048  bsp_sci.o(.bss)
    .bss                                     0x2000bd68   Section     2048  dma.o(.bss)
    .bss                                     0x2000c568   Section      512  bsp_wifi.o(.bss)
    .bss                                     0x2000c768   Section     3752  os_core.o(.bss)
    .bss                                     0x2000d610   Section      884  co_cobhandler.o(.bss)
    cobData                                  0x2000d610   Data         884  co_cobhandler.o(.bss)
    .bss                                     0x2000d984   Section      104  co_errctrl.o(.bss)
    hbProdTimer                              0x2000d984   Data          24  co_errctrl.o(.bss)
    hbConsumer                               0x2000d99c   Data          80  co_errctrl.o(.bss)
    .bss                                     0x2000d9ec   Section       64  co_lss.o(.bss)
    vendor                                   0x2000d9ec   Data          16  co_lss.o(.bss)
    vendor                                   0x2000d9fc   Data          24  co_lss.o(.bss)
    lssBitrateTimer                          0x2000da14   Data          24  co_lss.o(.bss)
    .bss                                     0x2000da2c   Section      156  co_pdo.o(.bss)
    pdoTransmit                              0x2000da2c   Data         156  co_pdo.o(.bss)
    .bss                                     0x2000dac8   Section      760  co_queue.o(.bss)
    recDataBuffer                            0x2000dac8   Data         360  co_queue.o(.bss)
    trDataBuffer                             0x2000dc30   Data         400  co_queue.o(.bss)
    .bss                                     0x2000ddc0   Section       36  co_sdoserv.o(.bss)
    sdoServer                                0x2000ddc0   Data          36  co_sdoserv.o(.bss)
    .bss                                     0x2000dde4   Section       48  co_sleep.o(.bss)
    sleepTimer                               0x2000dde4   Data          24  co_sleep.o(.bss)
    awakeTimer                               0x2000ddfc   Data          24  co_sleep.o(.bss)
    .bss                                     0x2000de14   Section       24  co_sync.o(.bss)
    syncTimer                                0x2000de14   Data          24  co_sync.o(.bss)
    .bss                                     0x2000de2c   Section      144  eb_battery.o(.bss)
    .bss                                     0x2000debc   Section      112  eb_framework.o(.bss)
    .bss                                     0x2000df2c   Section       36  eb_state.o(.bss)
    nextStateEvent                           0x2000df2c   Data          12  eb_state.o(.bss)
    lssSleepTimer                            0x2000df38   Data          24  eb_state.o(.bss)
    .bss                                     0x2000df50   Section       32  gen_objdict.o(.bss)
    od_u32                                   0x2000df50   Data          32  gen_objdict.o(.bss)
    STACK                                    0x2000df70   Section     1024  startup_stm32f4xx.o(STACK)

    Global Symbols

    Symbol Name                              Value     Ov Type        Size  Object(Section)

    BuildAttributes$$THM_ISAv4$E$P$D$K$B$S$7EM$VFPi3$EXTD16$VFPS$VFMA$PE$A:L22UL41UL21$X:L11$S22US41US21$IEEE1$IW$USESV6$~STKCKD$USESV7$~SHL$OTIME$ROPI$EBA8$MICROLIB$REQ8$PRES8$EABIv2 0x00000000   Number         0  anon$$obj.o ABSOLUTE
    __ARM_use_no_argv                        0x00000000   Number         0  main.o ABSOLUTE
    _printf_a                                0x00000000   Number         0  stubs.o ABSOLUTE
    _printf_c                                0x00000000   Number         0  stubs.o ABSOLUTE
    _printf_charcount                        0x00000000   Number         0  stubs.o ABSOLUTE
    _printf_d                                0x00000000   Number         0  stubs.o ABSOLUTE
    _printf_e                                0x00000000   Number         0  stubs.o ABSOLUTE
    _printf_f                                0x00000000   Number         0  stubs.o ABSOLUTE
    _printf_flags                            0x00000000   Number         0  stubs.o ABSOLUTE
    _printf_fp_dec                           0x00000000   Number         0  stubs.o ABSOLUTE
    _printf_fp_hex                           0x00000000   Number         0  stubs.o ABSOLUTE
    _printf_g                                0x00000000   Number         0  stubs.o ABSOLUTE
    _printf_i                                0x00000000   Number         0  stubs.o ABSOLUTE
    _printf_int_dec                          0x00000000   Number         0  stubs.o ABSOLUTE
    _printf_l                                0x00000000   Number         0  stubs.o ABSOLUTE
    _printf_lc                               0x00000000   Number         0  stubs.o ABSOLUTE
    _printf_ll                               0x00000000   Number         0  stubs.o ABSOLUTE
    _printf_lld                              0x00000000   Number         0  stubs.o ABSOLUTE
    _printf_lli                              0x00000000   Number         0  stubs.o ABSOLUTE
    _printf_llo                              0x00000000   Number         0  stubs.o ABSOLUTE
    _printf_llu                              0x00000000   Number         0  stubs.o ABSOLUTE
    _printf_llx                              0x00000000   Number         0  stubs.o ABSOLUTE
    _printf_longlong_dec                     0x00000000   Number         0  stubs.o ABSOLUTE
    _printf_longlong_hex                     0x00000000   Number         0  stubs.o ABSOLUTE
    _printf_longlong_oct                     0x00000000   Number         0  stubs.o ABSOLUTE
    _printf_ls                               0x00000000   Number         0  stubs.o ABSOLUTE
    _printf_mbtowc                           0x00000000   Number         0  stubs.o ABSOLUTE
    _printf_n                                0x00000000   Number         0  stubs.o ABSOLUTE
    _printf_o                                0x00000000   Number         0  stubs.o ABSOLUTE
    _printf_p                                0x00000000   Number         0  stubs.o ABSOLUTE
    _printf_percent                          0x00000000   Number         0  stubs.o ABSOLUTE
    _printf_pre_padding                      0x00000000   Number         0  stubs.o ABSOLUTE
    _printf_return_value                     0x00000000   Number         0  stubs.o ABSOLUTE
    _printf_s                                0x00000000   Number         0  stubs.o ABSOLUTE
    _printf_sizespec                         0x00000000   Number         0  stubs.o ABSOLUTE
    _printf_str                              0x00000000   Number         0  stubs.o ABSOLUTE
    _printf_truncate_signed                  0x00000000   Number         0  stubs.o ABSOLUTE
    _printf_truncate_unsigned                0x00000000   Number         0  stubs.o ABSOLUTE
    _printf_u                                0x00000000   Number         0  stubs.o ABSOLUTE
    _printf_wc                               0x00000000   Number         0  stubs.o ABSOLUTE
    _printf_wctomb                           0x00000000   Number         0  stubs.o ABSOLUTE
    _printf_widthprec                        0x00000000   Number         0  stubs.o ABSOLUTE
    _printf_x                                0x00000000   Number         0  stubs.o ABSOLUTE
    _clock_init                               - Undefined Weak Reference
    __Vectors_Size                           0x00000188   Number         0  startup_stm32f4xx.o ABSOLUTE
    __Vectors                                0x08000000   Data           4  startup_stm32f4xx.o(RESET)
    __Vectors_End                            0x08000188   Data           0  startup_stm32f4xx.o(RESET)
    __main                                   0x08000189   Thumb Code     0  entry.o(.ARM.Collect$$$$00000000)
    _main_stk                                0x08000189   Thumb Code     0  entry2.o(.ARM.Collect$$$$00000001)
    _main_scatterload                        0x0800018d   Thumb Code     0  entry5.o(.ARM.Collect$$$$00000004)
    __main_after_scatterload                 0x08000191   Thumb Code     0  entry5.o(.ARM.Collect$$$$00000004)
    _main_clock                              0x08000191   Thumb Code     0  entry7b.o(.ARM.Collect$$$$00000008)
    _main_init                               0x08000191   Thumb Code     0  entry8.o(.ARM.Collect$$$$00000009)
    Task_StartUp                             0x0800019d   Thumb Code   174  main.o(.text)
    main                                     0x0800024b   Thumb Code    52  main.o(.text)
    bmuInit                                  0x080002c1   Thumb Code    14  appbmu.o(.text)
    SOC_OCV_Lookup                           0x080002cf   Thumb Code   790  appbmu.o(.text)
    SOC_OCV_Cal                              0x080005e5   Thumb Code   316  appbmu.o(.text)
    abso                                     0x08000721   Thumb Code    14  appbmu.o(.text)
    updateBMSoc                              0x0800072f   Thumb Code   752  appbmu.o(.text)
    strPlimSet                               0x08000a1f   Thumb Code   972  appbmu.o(.text)
    abs                                      0x08000deb   Thumb Code    14  appbmu.o(.text)
    isSysFaultExist                          0x08000df9   Thumb Code     4  appbmu.o(.text)
    isStrFaultExist                          0x08000dfd   Thumb Code   102  appbmu.o(.text)
    strAlarmClr                              0x08000e63   Thumb Code   178  appbmu.o(.text)
    strFaultClr                              0x08000f15   Thumb Code   102  appbmu.o(.text)
    isStrAlarmExist                          0x08000f7b   Thumb Code   182  appbmu.o(.text)
    isWarningExist                           0x08001031   Thumb Code    84  appbmu.o(.text)
    isHWShutdownExist                        0x08001085   Thumb Code    40  appbmu.o(.text)
    strTCCheck                               0x080011e9   Thumb Code   320  appbmu.o(.text)
    TCTableInit                              0x08001329   Thumb Code  2152  appbmu.o(.text)
    getTCStat                                0x08001b91   Thumb Code    16  appbmu.o(.text)
    Task_CAN1                                0x08001c2d   Thumb Code    28  task_can1.o(.text)
    Task_CO_EB_Slave                         0x08001c49   Thumb Code    50  task_can1.o(.text)
    parseCOLong                              0x08001c7b   Thumb Code    12  task_can1.o(.text)
    lookUpTable                              0x08001c8d   Thumb Code   304  task_adc.o(.text)
    parseADC                                 0x08001dbd   Thumb Code   288  task_adc.o(.text)
    Task_ADC                                 0x08001edd   Thumb Code   218  task_adc.o(.text)
    lookUpTable_UP                           0x08001fb7   Thumb Code   340  task_adc.o(.text)
    NVM_BPInfoWrite                          0x0800214d   Thumb Code     2  task_eflash.o(.text)
    NVM_SysinfoWrite                         0x0800214f   Thumb Code    48  task_eflash.o(.text)
    NVM_BMWrite                              0x0800217f   Thumb Code    48  task_eflash.o(.text)
    Task_EFlash                              0x080021af   Thumb Code    82  task_eflash.o(.text)
    SPI_Test                                 0x08002201   Thumb Code    84  task_eflash.o(.text)
    NVM_sysCfgWrite                          0x08002255   Thumb Code    44  task_eflash.o(.text)
    NVM_AllInfoWrite                         0x08002281   Thumb Code    20  task_eflash.o(.text)
    SysVarInit                               0x080022a9   Thumb Code    72  appconfig.o(.text)
    sysConfigInit                            0x080022f1   Thumb Code    66  appconfig.o(.text)
    SCInit                                   0x08002333   Thumb Code    60  appconfig.o(.text)
    Task_Main                                0x08002389   Thumb Code    90  task_main.o(.text)
    WakeSrcCheck                             0x080023e3   Thumb Code    28  task_main.o(.text)
    wakeupBmu                                0x080023ff   Thumb Code    26  task_main.o(.text)
    setWhoAmI                                0x08002419   Thumb Code    14  task_main.o(.text)
    masterRun                                0x08002427   Thumb Code     2  task_main.o(.text)
    batApplInit                              0x080027f1   Thumb Code   216  co_battery.o(.text)
    batAppl                                  0x080028c9   Thumb Code    40  co_battery.o(.text)
    SPI1WriteByte                            0x0800291b   Thumb Code    14  task_ltc.o(.text)
    getPEC16                                 0x08002929   Thumb Code    46  task_ltc.o(.text)
    resetBuffer                              0x08002957   Thumb Code    32  task_ltc.o(.text)
    parseLtcAux                              0x08002977   Thumb Code   540  task_ltc.o(.text)
    parseLiearRes_1                          0x08002b93   Thumb Code   100  task_ltc.o(.text)
    initPECTbl                               0x08002c67   Thumb Code    60  task_ltc.o(.text)
    Task_LTC                                 0x08002ca3   Thumb Code  2436  task_ltc.o(.text)
    insertByteToBuffer                       0x08003627   Thumb Code    62  task_ltc.o(.text)
    Task_CAN2MsgBuf_GT                       0x08003721   Thumb Code     2  task_can2.o(.text)
    Task_CAN2_Rev                            0x08003723   Thumb Code     2  task_can2.o(.text)
    Task_CANSend                             0x08003725   Thumb Code   404  task_can2.o(.text)
    sdIntAddrClaim                           0x080038b9   Thumb Code     2  task_can2.o(.text)
    parseIntAddrClaim                        0x080038bb   Thumb Code     8  task_can2.o(.text)
    parseDebugCommand_0x131                  0x080038c3   Thumb Code   152  task_can2.o(.text)
    J1939IdAssb_pgn                          0x0800395f   Thumb Code    80  task_can2.o(.text)
    j1939_send                               0x080039af   Thumb Code    22  task_can2.o(.text)
    BSP_Init                                 0x08003a09   Thumb Code    50  bsp_global.o(.text)
    NVIC_Configuration                       0x08003a41   Thumb Code   412  nvic.o(.text)
    DIO_Configuration                        0x08003bdd   Thumb Code   408  bsp_gpio.o(.text)
    LED_Blink                                0x08003d83   Thumb Code    36  bsp_gpio.o(.text)
    One_LED_ON                               0x08003da7   Thumb Code    76  bsp_gpio.o(.text)
    CAN_Baud_Process                         0x08003e11   Thumb Code    84  bsp_can.o(.text)
    CAN1_Configuration                       0x08003e65   Thumb Code   214  bsp_can.o(.text)
    CAN1_RX0_IRQHandler                      0x08003f3b   Thumb Code    86  bsp_can.o(.text)
    CAN1_WriteData                           0x08003f91   Thumb Code   132  bsp_can.o(.text)
    ADC_Configuration                        0x0800403d   Thumb Code   438  bsp_adc.o(.text)
    DMA2_Stream0_IRQHandler                  0x080041f3   Thumb Code    70  bsp_adc.o(.text)
    UART1_Configuration                      0x08004265   Thumb Code   246  bsp_sci.o(.text)
    USART1_IRQHandler_DMA                    0x0800435b   Thumb Code    44  bsp_sci.o(.text)
    RS232_DMA_Send                           0x08004387   Thumb Code    64  bsp_sci.o(.text)
    RS232_Send_Data                          0x080043c7   Thumb Code    36  bsp_sci.o(.text)
    UART4_Configuration                      0x080043eb   Thumb Code   226  bsp_sci.o(.text)
    UART4_IRQHandler                         0x080044cd   Thumb Code   132  bsp_sci.o(.text)
    U4_DMA_Send                              0x08004551   Thumb Code    66  bsp_sci.o(.text)
    U4_Send                                  0x08004593   Thumb Code    56  bsp_sci.o(.text)
    RS232_DMA_Init                           0x08004601   Thumb Code   202  dma.o(.text)
    DMA2_Stream7_IRQHandler                  0x080046cb   Thumb Code    42  dma.o(.text)
    UART4_DMA_Init                           0x080046f5   Thumb Code   208  dma.o(.text)
    DMA2_Stream6_IRQHandler                  0x080047c5   Thumb Code    42  dma.o(.text)
    DMA2_Stream4_IRQHandler                  0x080047ef   Thumb Code    42  dma.o(.text)
    df_read_open                             0x08004855   Thumb Code     6  flashdriver.o(.text)
    df_write_open                            0x0800485b   Thumb Code     6  flashdriver.o(.text)
    df_read                                  0x08004861   Thumb Code    42  flashdriver.o(.text)
    df_write                                 0x0800488b   Thumb Code    42  flashdriver.o(.text)
    df_read_close                            0x080048b5   Thumb Code     2  flashdriver.o(.text)
    df_read_seek                             0x080048b7   Thumb Code    16  flashdriver.o(.text)
    df_write_close                           0x080048c7   Thumb Code     2  flashdriver.o(.text)
    df_write_seek                            0x080048c9   Thumb Code    16  flashdriver.o(.text)
    SPI_LTC_Init                             0x080048e1   Thumb Code   232  sst25vf016b.o(.text)
    SPI_FLASH_Init                           0x080049c9   Thumb Code   218  sst25vf016b.o(.text)
    SPI_LTC_Init_1                           0x08004aa3   Thumb Code   326  sst25vf016b.o(.text)
    Flash_ReadWriteByte                      0x08004be9   Thumb Code    50  sst25vf016b.o(.text)
    SSTF016B_RD                              0x08004c1b   Thumb Code   100  sst25vf016b.o(.text)
    SSTF016B_RdID                            0x08004c7f   Thumb Code   158  sst25vf016b.o(.text)
    SSTF016B_WR                              0x08004d1d   Thumb Code   318  sst25vf016b.o(.text)
    SSTF016B_Erase                           0x08004e5b   Thumb Code   688  sst25vf016b.o(.text)
    SPI_FLASH_Test                           0x0800510b   Thumb Code    36  sst25vf016b.o(.text)
    SPI2_IRQHandler                          0x0800512f   Thumb Code    28  sst25vf016b.o(.text)
    WDG_Init                                 0x0800515d   Thumb Code    36  bsp_wdg.o(.text)
    wdg_feed                                 0x08005181   Thumb Code     8  bsp_wdg.o(.text)
    Wifi_ProcessAtResp                       0x08005189   Thumb Code    92  bsp_wifi.o(.text)
    RecvState                                0x080051e5   Thumb Code    24  bsp_wifi.o(.text)
    USART1_IRQHandler                        0x080051fd   Thumb Code    38  bsp_wifi.o(.text)
    procBUFF                                 0x08005223   Thumb Code   110  bsp_wifi.o(.text)
    SendToUSARTx                             0x08005291   Thumb Code    64  bsp_wifi.o(.text)
    EnterCMDState                            0x080052d1   Thumb Code   124  bsp_wifi.o(.text)
    WIFI_Config                              0x0800534d   Thumb Code  1002  bsp_wifi.o(.text)
    wifiInit                                 0x08005737   Thumb Code    48  bsp_wifi.o(.text)
    NVIC_PriorityGroupConfig                 0x080057e9   Thumb Code    10  misc.o(.text)
    NVIC_Init                                0x080057f3   Thumb Code   108  misc.o(.text)
    NVIC_SetVectorTable                      0x0800585f   Thumb Code    14  misc.o(.text)
    NVIC_SystemLPConfig                      0x0800586d   Thumb Code    34  misc.o(.text)
    SysTick_CLKSourceConfig                  0x0800588f   Thumb Code    40  misc.o(.text)
    ADC_DeInit                               0x080058cd   Thumb Code    22  stm32f4xx_adc.o(.text)
    ADC_Init                                 0x080058e3   Thumb Code    74  stm32f4xx_adc.o(.text)
    ADC_StructInit                           0x0800592d   Thumb Code    20  stm32f4xx_adc.o(.text)
    ADC_CommonInit                           0x08005941   Thumb Code    44  stm32f4xx_adc.o(.text)
    ADC_CommonStructInit                     0x0800596d   Thumb Code    12  stm32f4xx_adc.o(.text)
    ADC_Cmd                                  0x08005979   Thumb Code    22  stm32f4xx_adc.o(.text)
    ADC_AnalogWatchdogCmd                    0x0800598f   Thumb Code    16  stm32f4xx_adc.o(.text)
    ADC_AnalogWatchdogThresholdsConfig       0x0800599f   Thumb Code     6  stm32f4xx_adc.o(.text)
    ADC_AnalogWatchdogSingleChannelConfig    0x080059a5   Thumb Code    16  stm32f4xx_adc.o(.text)
    ADC_TempSensorVrefintCmd                 0x080059b5   Thumb Code    34  stm32f4xx_adc.o(.text)
    ADC_VBATCmd                              0x080059d7   Thumb Code    34  stm32f4xx_adc.o(.text)
    ADC_RegularChannelConfig                 0x080059f9   Thumb Code   186  stm32f4xx_adc.o(.text)
    ADC_SoftwareStartConv                    0x08005ab3   Thumb Code    10  stm32f4xx_adc.o(.text)
    ADC_SoftwareSTOPConv                     0x08005abd   Thumb Code    10  stm32f4xx_adc.o(.text)
    ADC_GetSoftwareStartConvStatus           0x08005ac7   Thumb Code    20  stm32f4xx_adc.o(.text)
    ADC_EOCOnEachRegularChannelCmd           0x08005adb   Thumb Code    22  stm32f4xx_adc.o(.text)
    ADC_ContinuousModeCmd                    0x08005af1   Thumb Code    22  stm32f4xx_adc.o(.text)
    ADC_DiscModeChannelCountConfig           0x08005b07   Thumb Code    24  stm32f4xx_adc.o(.text)
    ADC_DiscModeCmd                          0x08005b1f   Thumb Code    22  stm32f4xx_adc.o(.text)
    ADC_GetConversionValue                   0x08005b35   Thumb Code     8  stm32f4xx_adc.o(.text)
    MY_ADC_GetConversionValue                0x08005b3d   Thumb Code     8  stm32f4xx_adc.o(.text)
    ADC_GetMultiModeConversionValue          0x08005b45   Thumb Code     6  stm32f4xx_adc.o(.text)
    ADC_DMACmd                               0x08005b4b   Thumb Code    22  stm32f4xx_adc.o(.text)
    ADC_DMARequestAfterLastTransferCmd       0x08005b61   Thumb Code    22  stm32f4xx_adc.o(.text)
    ADC_MultiModeDMARequestAfterLastTransferCmd 0x08005b77   Thumb Code    34  stm32f4xx_adc.o(.text)
    ADC_InjectedChannelConfig                0x08005b99   Thumb Code   126  stm32f4xx_adc.o(.text)
    ADC_InjectedSequencerLengthConfig        0x08005c17   Thumb Code    24  stm32f4xx_adc.o(.text)
    ADC_SetInjectedOffset                    0x08005c2f   Thumb Code    12  stm32f4xx_adc.o(.text)
    ADC_ExternalTrigInjectedConvConfig       0x08005c3b   Thumb Code    16  stm32f4xx_adc.o(.text)
    ADC_ExternalTrigInjectedConvEdgeConfig   0x08005c4b   Thumb Code    16  stm32f4xx_adc.o(.text)
    ADC_SoftwareStartInjectedConv            0x08005c5b   Thumb Code    10  stm32f4xx_adc.o(.text)
    ADC_GetSoftwareStartInjectedConvCmdStatus 0x08005c65   Thumb Code    20  stm32f4xx_adc.o(.text)
    ADC_AutoInjectedConvCmd                  0x08005c79   Thumb Code    22  stm32f4xx_adc.o(.text)
    ADC_InjectedDiscModeCmd                  0x08005c8f   Thumb Code    22  stm32f4xx_adc.o(.text)
    ADC_GetInjectedConversionValue           0x08005ca5   Thumb Code    18  stm32f4xx_adc.o(.text)
    ADC_ITConfig                             0x08005cb7   Thumb Code    62  stm32f4xx_adc.o(.text)
    ADC_GetFlagStatus                        0x08005cf5   Thumb Code    18  stm32f4xx_adc.o(.text)
    ADC_ClearFlag                            0x08005d07   Thumb Code     6  stm32f4xx_adc.o(.text)
    ADC_GetITStatus                          0x08005d0d   Thumb Code    42  stm32f4xx_adc.o(.text)
    ADC_ClearITPendingBit                    0x08005d37   Thumb Code    10  stm32f4xx_adc.o(.text)
    CAN_DeInit                               0x08005d41   Thumb Code    50  stm32f4xx_can.o(.text)
    CAN_Init                                 0x08005d73   Thumb Code   284  stm32f4xx_can.o(.text)
    CAN_FilterInit                           0x08005e8f   Thumb Code   258  stm32f4xx_can.o(.text)
    CAN_StructInit                           0x08005f91   Thumb Code    32  stm32f4xx_can.o(.text)
    CAN_SlaveStartBank                       0x08005fb1   Thumb Code    48  stm32f4xx_can.o(.text)
    CAN_DBGFreeze                            0x08005fe1   Thumb Code    22  stm32f4xx_can.o(.text)
    CAN_TTComModeCmd                         0x08005ff7   Thumb Code   118  stm32f4xx_can.o(.text)
    CAN_Transmit                             0x0800606d   Thumb Code   304  stm32f4xx_can.o(.text)
    CAN_TransmitStatus                       0x0800619d   Thumb Code   138  stm32f4xx_can.o(.text)
    CAN_CancelTransmit                       0x08006227   Thumb Code    48  stm32f4xx_can.o(.text)
    CAN_Receive                              0x08006257   Thumb Code   240  stm32f4xx_can.o(.text)
    CAN_FIFORelease                          0x08006347   Thumb Code    22  stm32f4xx_can.o(.text)
    CAN_MessagePending                       0x0800635d   Thumb Code    30  stm32f4xx_can.o(.text)
    CAN_OperatingModeRequest                 0x0800637b   Thumb Code   162  stm32f4xx_can.o(.text)
    CAN_Sleep                                0x0800641d   Thumb Code    30  stm32f4xx_can.o(.text)
    CAN_WakeUp                               0x0800643b   Thumb Code    48  stm32f4xx_can.o(.text)
    CAN_GetLastErrorCode                     0x0800646b   Thumb Code    12  stm32f4xx_can.o(.text)
    CAN_GetReceiveErrorCounter               0x08006477   Thumb Code    10  stm32f4xx_can.o(.text)
    CAN_GetLSBTransmitErrorCounter           0x08006481   Thumb Code    12  stm32f4xx_can.o(.text)
    CAN_ITConfig                             0x0800648d   Thumb Code    18  stm32f4xx_can.o(.text)
    CAN_GetFlagStatus                        0x0800649f   Thumb Code   120  stm32f4xx_can.o(.text)
    CAN_ClearFlag                            0x08006517   Thumb Code    52  stm32f4xx_can.o(.text)
    CAN_GetITStatus                          0x0800655b   Thumb Code   308  stm32f4xx_can.o(.text)
    CAN_ClearITPendingBit                    0x0800668f   Thumb Code   162  stm32f4xx_can.o(.text)
    DMA_DeInit                               0x08006735   Thumb Code   324  stm32f4xx_dma.o(.text)
    DMA_Init                                 0x08006879   Thumb Code    82  stm32f4xx_dma.o(.text)
    DMA_StructInit                           0x080068cb   Thumb Code    34  stm32f4xx_dma.o(.text)
    DMA_Cmd                                  0x080068ed   Thumb Code    22  stm32f4xx_dma.o(.text)
    DMA_PeriphIncOffsetSizeConfig            0x08006903   Thumb Code    22  stm32f4xx_dma.o(.text)
    DMA_FlowControllerConfig                 0x08006919   Thumb Code    22  stm32f4xx_dma.o(.text)
    DMA_SetCurrDataCounter                   0x0800692f   Thumb Code     4  stm32f4xx_dma.o(.text)
    DMA_GetCurrDataCounter                   0x08006933   Thumb Code     8  stm32f4xx_dma.o(.text)
    DMA_DoubleBufferModeConfig               0x0800693b   Thumb Code    24  stm32f4xx_dma.o(.text)
    DMA_DoubleBufferModeCmd                  0x08006953   Thumb Code    22  stm32f4xx_dma.o(.text)
    DMA_MemoryTargetConfig                   0x08006969   Thumb Code    10  stm32f4xx_dma.o(.text)
    DMA_GetCurrentMemoryTarget               0x08006973   Thumb Code    20  stm32f4xx_dma.o(.text)
    DMA_GetCmdStatus                         0x08006987   Thumb Code    20  stm32f4xx_dma.o(.text)
    DMA_GetFIFOStatus                        0x0800699b   Thumb Code    12  stm32f4xx_dma.o(.text)
    DMA_GetFlagStatus                        0x080069a7   Thumb Code    62  stm32f4xx_dma.o(.text)
    DMA_ClearFlag                            0x080069e5   Thumb Code    40  stm32f4xx_dma.o(.text)
    DMA_ITConfig                             0x08006a0d   Thumb Code    58  stm32f4xx_dma.o(.text)
    DMA_GetITStatus                          0x08006a47   Thumb Code    86  stm32f4xx_dma.o(.text)
    DMA_ClearITPendingBit                    0x08006a9d   Thumb Code    40  stm32f4xx_dma.o(.text)
    GPIO_DeInit                              0x08006ae5   Thumb Code   220  stm32f4xx_gpio.o(.text)
    GPIO_Init                                0x08006bc1   Thumb Code   144  stm32f4xx_gpio.o(.text)
    GPIO_StructInit                          0x08006c51   Thumb Code    18  stm32f4xx_gpio.o(.text)
    GPIO_PinLockConfig                       0x08006c63   Thumb Code    18  stm32f4xx_gpio.o(.text)
    GPIO_ReadInputDataBit                    0x08006c75   Thumb Code    18  stm32f4xx_gpio.o(.text)
    GPIO_ReadInputData                       0x08006c87   Thumb Code     8  stm32f4xx_gpio.o(.text)
    GPIO_ReadOutputDataBit                   0x08006c8f   Thumb Code    18  stm32f4xx_gpio.o(.text)
    GPIO_ReadOutputData                      0x08006ca1   Thumb Code     8  stm32f4xx_gpio.o(.text)
    GPIO_SetBits                             0x08006ca9   Thumb Code     4  stm32f4xx_gpio.o(.text)
    GPIO_ResetBits                           0x08006cad   Thumb Code     4  stm32f4xx_gpio.o(.text)
    GPIO_WriteBit                            0x08006cb1   Thumb Code    10  stm32f4xx_gpio.o(.text)
    GPIO_Write                               0x08006cbb   Thumb Code     4  stm32f4xx_gpio.o(.text)
    GPIO_ToggleBits                          0x08006cbf   Thumb Code     8  stm32f4xx_gpio.o(.text)
    GPIO_PinAFConfig                         0x08006cc7   Thumb Code    70  stm32f4xx_gpio.o(.text)
    IWDG_WriteAccessCmd                      0x08006d31   Thumb Code     6  stm32f4xx_iwdg.o(.text)
    IWDG_SetPrescaler                        0x08006d37   Thumb Code     6  stm32f4xx_iwdg.o(.text)
    IWDG_SetReload                           0x08006d3d   Thumb Code     6  stm32f4xx_iwdg.o(.text)
    IWDG_ReloadCounter                       0x08006d43   Thumb Code    10  stm32f4xx_iwdg.o(.text)
    IWDG_Enable                              0x08006d4d   Thumb Code    10  stm32f4xx_iwdg.o(.text)
    IWDG_GetFlagStatus                       0x08006d57   Thumb Code    20  stm32f4xx_iwdg.o(.text)
    RCC_DeInit                               0x08006d71   Thumb Code    60  stm32f4xx_rcc.o(.text)
    RCC_HSEConfig                            0x08006dad   Thumb Code    14  stm32f4xx_rcc.o(.text)
    RCC_GetFlagStatus                        0x08006dbb   Thumb Code    60  stm32f4xx_rcc.o(.text)
    RCC_WaitForHSEStartUp                    0x08006df7   Thumb Code    48  stm32f4xx_rcc.o(.text)
    RCC_AdjustHSICalibrationValue            0x08006e27   Thumb Code    20  stm32f4xx_rcc.o(.text)
    RCC_HSICmd                               0x08006e3b   Thumb Code     6  stm32f4xx_rcc.o(.text)
    RCC_LSEConfig                            0x08006e41   Thumb Code    46  stm32f4xx_rcc.o(.text)
    RCC_LSICmd                               0x08006e6f   Thumb Code     6  stm32f4xx_rcc.o(.text)
    RCC_PLLConfig                            0x08006e75   Thumb Code    34  stm32f4xx_rcc.o(.text)
    RCC_PLLCmd                               0x08006e97   Thumb Code     6  stm32f4xx_rcc.o(.text)
    RCC_PLLI2SConfig                         0x08006e9d   Thumb Code    14  stm32f4xx_rcc.o(.text)
    RCC_PLLI2SCmd                            0x08006eab   Thumb Code     6  stm32f4xx_rcc.o(.text)
    RCC_ClockSecuritySystemCmd               0x08006eb1   Thumb Code     6  stm32f4xx_rcc.o(.text)
    RCC_MCO1Config                           0x08006eb7   Thumb Code    28  stm32f4xx_rcc.o(.text)
    RCC_MCO2Config                           0x08006ed3   Thumb Code    28  stm32f4xx_rcc.o(.text)
    RCC_SYSCLKConfig                         0x08006eef   Thumb Code    20  stm32f4xx_rcc.o(.text)
    RCC_GetSYSCLKSource                      0x08006f03   Thumb Code    12  stm32f4xx_rcc.o(.text)
    RCC_HCLKConfig                           0x08006f0f   Thumb Code    20  stm32f4xx_rcc.o(.text)
    RCC_PCLK1Config                          0x08006f23   Thumb Code    20  stm32f4xx_rcc.o(.text)
    RCC_PCLK2Config                          0x08006f37   Thumb Code    22  stm32f4xx_rcc.o(.text)
    RCC_GetClocksFreq                        0x08006f4d   Thumb Code   214  stm32f4xx_rcc.o(.text)
    RCC_RTCCLKConfig                         0x08007023   Thumb Code    54  stm32f4xx_rcc.o(.text)
    RCC_RTCCLKCmd                            0x08007059   Thumb Code     8  stm32f4xx_rcc.o(.text)
    RCC_BackupResetCmd                       0x08007061   Thumb Code     8  stm32f4xx_rcc.o(.text)
    RCC_I2SCLKConfig                         0x08007069   Thumb Code     6  stm32f4xx_rcc.o(.text)
    RCC_AHB1PeriphClockCmd                   0x0800706f   Thumb Code    34  stm32f4xx_rcc.o(.text)
    RCC_AHB2PeriphClockCmd                   0x08007091   Thumb Code    34  stm32f4xx_rcc.o(.text)
    RCC_AHB3PeriphClockCmd                   0x080070b3   Thumb Code    34  stm32f4xx_rcc.o(.text)
    RCC_APB1PeriphClockCmd                   0x080070d5   Thumb Code    34  stm32f4xx_rcc.o(.text)
    RCC_APB2PeriphClockCmd                   0x080070f7   Thumb Code    34  stm32f4xx_rcc.o(.text)
    RCC_AHB1PeriphResetCmd                   0x08007119   Thumb Code    34  stm32f4xx_rcc.o(.text)
    RCC_AHB2PeriphResetCmd                   0x0800713b   Thumb Code    74  stm32f4xx_rcc.o(.text)
    RCC_AHB3PeriphResetCmd                   0x08007185   Thumb Code    26  stm32f4xx_rcc.o(.text)
    RCC_APB1PeriphResetCmd                   0x0800719f   Thumb Code    34  stm32f4xx_rcc.o(.text)
    RCC_APB2PeriphResetCmd                   0x080071c1   Thumb Code    34  stm32f4xx_rcc.o(.text)
    RCC_AHB1PeriphClockLPModeCmd             0x080071e3   Thumb Code    34  stm32f4xx_rcc.o(.text)
    RCC_AHB2PeriphClockLPModeCmd             0x08007205   Thumb Code    34  stm32f4xx_rcc.o(.text)
    RCC_AHB3PeriphClockLPModeCmd             0x08007227   Thumb Code    34  stm32f4xx_rcc.o(.text)
    RCC_APB1PeriphClockLPModeCmd             0x08007249   Thumb Code    34  stm32f4xx_rcc.o(.text)
    RCC_APB2PeriphClockLPModeCmd             0x0800726b   Thumb Code    34  stm32f4xx_rcc.o(.text)
    RCC_ITConfig                             0x0800728d   Thumb Code    38  stm32f4xx_rcc.o(.text)
    RCC_ClearFlag                            0x080072b3   Thumb Code    18  stm32f4xx_rcc.o(.text)
    RCC_GetITStatus                          0x080072c5   Thumb Code    22  stm32f4xx_rcc.o(.text)
    RCC_ClearITPendingBit                    0x080072db   Thumb Code     8  stm32f4xx_rcc.o(.text)
    RNG_DeInit                               0x080072e9   Thumb Code    20  stm32f4xx_rng.o(.text)
    RNG_Cmd                                  0x080072fd   Thumb Code    30  stm32f4xx_rng.o(.text)
    RNG_GetRandomNumber                      0x0800731b   Thumb Code     8  stm32f4xx_rng.o(.text)
    RNG_ITConfig                             0x08007323   Thumb Code    30  stm32f4xx_rng.o(.text)
    RNG_GetFlagStatus                        0x08007341   Thumb Code    22  stm32f4xx_rng.o(.text)
    RNG_ClearFlag                            0x08007357   Thumb Code    12  stm32f4xx_rng.o(.text)
    RNG_GetITStatus                          0x08007363   Thumb Code    22  stm32f4xx_rng.o(.text)
    RNG_ClearITPendingBit                    0x08007379   Thumb Code    12  stm32f4xx_rng.o(.text)
    SPI_I2S_DeInit                           0x08007389   Thumb Code    76  stm32f4xx_spi.o(.text)
    SPI_Init                                 0x080073d5   Thumb Code    60  stm32f4xx_spi.o(.text)
    I2S_Init                                 0x08007411   Thumb Code   340  stm32f4xx_spi.o(.text)
    SPI_StructInit                           0x08007565   Thumb Code    24  stm32f4xx_spi.o(.text)
    I2S_StructInit                           0x0800757d   Thumb Code    20  stm32f4xx_spi.o(.text)
    SPI_Cmd                                  0x08007591   Thumb Code    24  stm32f4xx_spi.o(.text)
    I2S_Cmd                                  0x080075a9   Thumb Code    24  stm32f4xx_spi.o(.text)
    SPI_DataSizeConfig                       0x080075c1   Thumb Code    18  stm32f4xx_spi.o(.text)
    SPI_BiDirectionalLineConfig              0x080075d3   Thumb Code    28  stm32f4xx_spi.o(.text)
    SPI_NSSInternalSoftwareConfig            0x080075ef   Thumb Code    30  stm32f4xx_spi.o(.text)
    SPI_SSOutputCmd                          0x0800760d   Thumb Code    24  stm32f4xx_spi.o(.text)
    SPI_TIModeCmd                            0x08007625   Thumb Code    24  stm32f4xx_spi.o(.text)
    I2S_FullDuplexConfig                     0x0800763d   Thumb Code    80  stm32f4xx_spi.o(.text)
    SPI_I2S_ReceiveData                      0x0800768d   Thumb Code     6  stm32f4xx_spi.o(.text)
    SPI_I2S_SendData                         0x08007693   Thumb Code     4  stm32f4xx_spi.o(.text)
    SPI_CalculateCRC                         0x08007697   Thumb Code    24  stm32f4xx_spi.o(.text)
    SPI_TransmitCRC                          0x080076af   Thumb Code    10  stm32f4xx_spi.o(.text)
    SPI_GetCRC                               0x080076b9   Thumb Code    16  stm32f4xx_spi.o(.text)
    SPI_GetCRCPolynomial                     0x080076c9   Thumb Code     6  stm32f4xx_spi.o(.text)
    SPI_I2S_DMACmd                           0x080076cf   Thumb Code    24  stm32f4xx_spi.o(.text)
    SPI_I2S_ITConfig                         0x080076e7   Thumb Code    42  stm32f4xx_spi.o(.text)
    SPI_I2S_GetFlagStatus                    0x08007711   Thumb Code    18  stm32f4xx_spi.o(.text)
    SPI_I2S_ClearFlag                        0x08007723   Thumb Code     6  stm32f4xx_spi.o(.text)
    SPI_I2S_GetITStatus                      0x08007729   Thumb Code    56  stm32f4xx_spi.o(.text)
    SPI_I2S_ClearITPendingBit                0x08007761   Thumb Code    40  stm32f4xx_spi.o(.text)
    TIM_DeInit                               0x08007789   Thumb Code   346  stm32f4xx_tim.o(.text)
    TIM_TimeBaseInit                         0x080078e3   Thumb Code   104  stm32f4xx_tim.o(.text)
    TIM_TimeBaseStructInit                   0x0800794b   Thumb Code    18  stm32f4xx_tim.o(.text)
    TIM_PrescalerConfig                      0x0800795d   Thumb Code     6  stm32f4xx_tim.o(.text)
    TIM_CounterModeConfig                    0x08007963   Thumb Code    18  stm32f4xx_tim.o(.text)
    TIM_SetCounter                           0x08007975   Thumb Code     4  stm32f4xx_tim.o(.text)
    TIM_SetAutoreload                        0x08007979   Thumb Code     4  stm32f4xx_tim.o(.text)
    TIM_GetCounter                           0x0800797d   Thumb Code     6  stm32f4xx_tim.o(.text)
    TIM_GetPrescaler                         0x08007983   Thumb Code     6  stm32f4xx_tim.o(.text)
    TIM_UpdateDisableConfig                  0x08007989   Thumb Code    24  stm32f4xx_tim.o(.text)
    TIM_UpdateRequestConfig                  0x080079a1   Thumb Code    24  stm32f4xx_tim.o(.text)
    TIM_ARRPreloadConfig                     0x080079b9   Thumb Code    24  stm32f4xx_tim.o(.text)
    TIM_SelectOnePulseMode                   0x080079d1   Thumb Code    18  stm32f4xx_tim.o(.text)
    TIM_SetClockDivision                     0x080079e3   Thumb Code    18  stm32f4xx_tim.o(.text)
    TIM_Cmd                                  0x080079f5   Thumb Code    24  stm32f4xx_tim.o(.text)
    TIM_OC1Init                              0x08007a0d   Thumb Code   126  stm32f4xx_tim.o(.text)
    TIM_OC2Init                              0x08007a8b   Thumb Code   156  stm32f4xx_tim.o(.text)
    TIM_OC3Init                              0x08007b27   Thumb Code   210  stm32f4xx_tim.o(.text)
    TIM_OC4Init                              0x08007bf9   Thumb Code   110  stm32f4xx_tim.o(.text)
    TIM_OCStructInit                         0x08007c67   Thumb Code    20  stm32f4xx_tim.o(.text)
    TIM_SelectOCxM                           0x08007c7b   Thumb Code    90  stm32f4xx_tim.o(.text)
    TIM_SetCompare1                          0x08007cd5   Thumb Code     4  stm32f4xx_tim.o(.text)
    TIM_SetCompare2                          0x08007cd9   Thumb Code     4  stm32f4xx_tim.o(.text)
    TIM_SetCompare3                          0x08007cdd   Thumb Code     4  stm32f4xx_tim.o(.text)
    TIM_SetCompare4                          0x08007ce1   Thumb Code     4  stm32f4xx_tim.o(.text)
    TIM_ForcedOC1Config                      0x08007ce5   Thumb Code    18  stm32f4xx_tim.o(.text)
    TIM_ForcedOC2Config                      0x08007cf7   Thumb Code    22  stm32f4xx_tim.o(.text)
    TIM_ForcedOC3Config                      0x08007d0d   Thumb Code    18  stm32f4xx_tim.o(.text)
    TIM_ForcedOC4Config                      0x08007d1f   Thumb Code    22  stm32f4xx_tim.o(.text)
    TIM_OC1PreloadConfig                     0x08007d35   Thumb Code    18  stm32f4xx_tim.o(.text)
    TIM_OC2PreloadConfig                     0x08007d47   Thumb Code    22  stm32f4xx_tim.o(.text)
    TIM_OC3PreloadConfig                     0x08007d5d   Thumb Code    18  stm32f4xx_tim.o(.text)
    TIM_OC4PreloadConfig                     0x08007d6f   Thumb Code    22  stm32f4xx_tim.o(.text)
    TIM_OC1FastConfig                        0x08007d85   Thumb Code    18  stm32f4xx_tim.o(.text)
    TIM_OC2FastConfig                        0x08007d97   Thumb Code    22  stm32f4xx_tim.o(.text)
    TIM_OC3FastConfig                        0x08007dad   Thumb Code    18  stm32f4xx_tim.o(.text)
    TIM_OC4FastConfig                        0x08007dbf   Thumb Code    22  stm32f4xx_tim.o(.text)
    TIM_ClearOC1Ref                          0x08007dd5   Thumb Code    18  stm32f4xx_tim.o(.text)
    TIM_ClearOC2Ref                          0x08007de7   Thumb Code    20  stm32f4xx_tim.o(.text)
    TIM_ClearOC3Ref                          0x08007dfb   Thumb Code    18  stm32f4xx_tim.o(.text)
    TIM_ClearOC4Ref                          0x08007e0d   Thumb Code    20  stm32f4xx_tim.o(.text)
    TIM_OC1PolarityConfig                    0x08007e21   Thumb Code    18  stm32f4xx_tim.o(.text)
    TIM_OC1NPolarityConfig                   0x08007e33   Thumb Code    18  stm32f4xx_tim.o(.text)
    TIM_OC2PolarityConfig                    0x08007e45   Thumb Code    22  stm32f4xx_tim.o(.text)
    TIM_OC2NPolarityConfig                   0x08007e5b   Thumb Code    22  stm32f4xx_tim.o(.text)
    TIM_OC3PolarityConfig                    0x08007e71   Thumb Code    22  stm32f4xx_tim.o(.text)
    TIM_OC3NPolarityConfig                   0x08007e87   Thumb Code    22  stm32f4xx_tim.o(.text)
    TIM_OC4PolarityConfig                    0x08007e9d   Thumb Code    22  stm32f4xx_tim.o(.text)
    TIM_CCxCmd                               0x08007eb3   Thumb Code    34  stm32f4xx_tim.o(.text)
    TIM_CCxNCmd                              0x08007ed5   Thumb Code    34  stm32f4xx_tim.o(.text)
    TIM_SetIC4Prescaler                      0x08007ef7   Thumb Code    22  stm32f4xx_tim.o(.text)
    TIM_SetIC3Prescaler                      0x08007f51   Thumb Code    18  stm32f4xx_tim.o(.text)
    TIM_SetIC2Prescaler                      0x08007fa3   Thumb Code    22  stm32f4xx_tim.o(.text)
    TIM_SetIC1Prescaler                      0x08007ffd   Thumb Code    18  stm32f4xx_tim.o(.text)
    TIM_ICInit                               0x08008053   Thumb Code   110  stm32f4xx_tim.o(.text)
    TIM_ICStructInit                         0x080080c1   Thumb Code    18  stm32f4xx_tim.o(.text)
    TIM_PWMIConfig                           0x080080d3   Thumb Code   124  stm32f4xx_tim.o(.text)
    TIM_GetCapture1                          0x0800814f   Thumb Code     6  stm32f4xx_tim.o(.text)
    TIM_GetCapture2                          0x08008155   Thumb Code     6  stm32f4xx_tim.o(.text)
    TIM_GetCapture3                          0x0800815b   Thumb Code     6  stm32f4xx_tim.o(.text)
    TIM_GetCapture4                          0x08008161   Thumb Code     6  stm32f4xx_tim.o(.text)
    TIM_BDTRConfig                           0x08008167   Thumb Code    32  stm32f4xx_tim.o(.text)
    TIM_BDTRStructInit                       0x08008187   Thumb Code    18  stm32f4xx_tim.o(.text)
    TIM_CtrlPWMOutputs                       0x08008199   Thumb Code    30  stm32f4xx_tim.o(.text)
    TIM_SelectCOM                            0x080081b7   Thumb Code    24  stm32f4xx_tim.o(.text)
    TIM_CCPreloadControl                     0x080081cf   Thumb Code    24  stm32f4xx_tim.o(.text)
    TIM_ITConfig                             0x080081e7   Thumb Code    24  stm32f4xx_tim.o(.text)
    TIM_GenerateEvent                        0x080081ff   Thumb Code     4  stm32f4xx_tim.o(.text)
    TIM_GetFlagStatus                        0x08008203   Thumb Code    18  stm32f4xx_tim.o(.text)
    TIM_ClearFlag                            0x08008215   Thumb Code     6  stm32f4xx_tim.o(.text)
    TIM_GetITStatus                          0x0800821b   Thumb Code    38  stm32f4xx_tim.o(.text)
    TIM_ClearITPendingBit                    0x08008241   Thumb Code     6  stm32f4xx_tim.o(.text)
    TIM_DMAConfig                            0x08008247   Thumb Code    10  stm32f4xx_tim.o(.text)
    TIM_DMACmd                               0x08008251   Thumb Code    24  stm32f4xx_tim.o(.text)
    TIM_SelectCCDMA                          0x08008269   Thumb Code    24  stm32f4xx_tim.o(.text)
    TIM_InternalClockConfig                  0x08008281   Thumb Code    12  stm32f4xx_tim.o(.text)
    TIM_SelectInputTrigger                   0x0800828d   Thumb Code    18  stm32f4xx_tim.o(.text)
    TIM_ITRxExternalClockConfig              0x0800829f   Thumb Code    24  stm32f4xx_tim.o(.text)
    TIM_TIxExternalClockConfig               0x080082b7   Thumb Code    62  stm32f4xx_tim.o(.text)
    TIM_ETRConfig                            0x080082f5   Thumb Code    26  stm32f4xx_tim.o(.text)
    TIM_ETRClockMode1Config                  0x0800830f   Thumb Code    54  stm32f4xx_tim.o(.text)
    TIM_ETRClockMode2Config                  0x08008345   Thumb Code    32  stm32f4xx_tim.o(.text)
    TIM_SelectOutputTrigger                  0x08008365   Thumb Code    18  stm32f4xx_tim.o(.text)
    TIM_SelectSlaveMode                      0x08008377   Thumb Code    18  stm32f4xx_tim.o(.text)
    TIM_SelectMasterSlaveMode                0x08008389   Thumb Code    18  stm32f4xx_tim.o(.text)
    TIM_EncoderInterfaceConfig               0x0800839b   Thumb Code    64  stm32f4xx_tim.o(.text)
    TIM_SelectHallSensor                     0x080083db   Thumb Code    24  stm32f4xx_tim.o(.text)
    TIM_RemapConfig                          0x080083f3   Thumb Code     6  stm32f4xx_tim.o(.text)
    USART_DeInit                             0x080083f9   Thumb Code   156  stm32f4xx_usart.o(.text)
    USART_Init                               0x08008495   Thumb Code   204  stm32f4xx_usart.o(.text)
    USART_StructInit                         0x08008561   Thumb Code    24  stm32f4xx_usart.o(.text)
    USART_ClockInit                          0x08008579   Thumb Code    32  stm32f4xx_usart.o(.text)
    USART_ClockStructInit                    0x08008599   Thumb Code    12  stm32f4xx_usart.o(.text)
    USART_Cmd                                0x080085a5   Thumb Code    24  stm32f4xx_usart.o(.text)
    USART_SetPrescaler                       0x080085bd   Thumb Code    16  stm32f4xx_usart.o(.text)
    USART_OverSampling8Cmd                   0x080085cd   Thumb Code    22  stm32f4xx_usart.o(.text)
    USART_OneBitMethodCmd                    0x080085e3   Thumb Code    24  stm32f4xx_usart.o(.text)
    USART_SendData                           0x080085fb   Thumb Code     8  stm32f4xx_usart.o(.text)
    USART_ReceiveData                        0x08008603   Thumb Code    10  stm32f4xx_usart.o(.text)
    USART_SetAddress                         0x0800860d   Thumb Code    18  stm32f4xx_usart.o(.text)
    USART_ReceiverWakeUpCmd                  0x0800861f   Thumb Code    24  stm32f4xx_usart.o(.text)
    USART_WakeUpConfig                       0x08008637   Thumb Code    18  stm32f4xx_usart.o(.text)
    USART_LINBreakDetectLengthConfig         0x08008649   Thumb Code    18  stm32f4xx_usart.o(.text)
    USART_LINCmd                             0x0800865b   Thumb Code    24  stm32f4xx_usart.o(.text)
    USART_SendBreak                          0x08008673   Thumb Code    10  stm32f4xx_usart.o(.text)
    USART_HalfDuplexCmd                      0x0800867d   Thumb Code    24  stm32f4xx_usart.o(.text)
    USART_SetGuardTime                       0x08008695   Thumb Code    16  stm32f4xx_usart.o(.text)
    USART_SmartCardCmd                       0x080086a5   Thumb Code    24  stm32f4xx_usart.o(.text)
    USART_SmartCardNACKCmd                   0x080086bd   Thumb Code    24  stm32f4xx_usart.o(.text)
    USART_IrDAConfig                         0x080086d5   Thumb Code    18  stm32f4xx_usart.o(.text)
    USART_IrDACmd                            0x080086e7   Thumb Code    24  stm32f4xx_usart.o(.text)
    USART_DMACmd                             0x080086ff   Thumb Code    24  stm32f4xx_usart.o(.text)
    USART_ITConfig                           0x08008717   Thumb Code    74  stm32f4xx_usart.o(.text)
    USART_GetFlagStatus                      0x08008761   Thumb Code    26  stm32f4xx_usart.o(.text)
    USART_ClearFlag                          0x0800877b   Thumb Code    18  stm32f4xx_usart.o(.text)
    USART_GetITStatus                        0x0800878d   Thumb Code   112  stm32f4xx_usart.o(.text)
    USART_ClearITPendingBit                  0x080087fd   Thumb Code    30  stm32f4xx_usart.o(.text)
    Reset_Handler                            0x0800881d   Thumb Code     8  startup_stm32f4xx.o(.text)
    NMI_Handler                              0x08008825   Thumb Code     2  startup_stm32f4xx.o(.text)
    HardFault_Handler                        0x08008827   Thumb Code     2  startup_stm32f4xx.o(.text)
    MemManage_Handler                        0x08008829   Thumb Code     2  startup_stm32f4xx.o(.text)
    BusFault_Handler                         0x0800882b   Thumb Code     2  startup_stm32f4xx.o(.text)
    UsageFault_Handler                       0x0800882d   Thumb Code     2  startup_stm32f4xx.o(.text)
    SVC_Handler                              0x0800882f   Thumb Code     2  startup_stm32f4xx.o(.text)
    DebugMon_Handler                         0x08008831   Thumb Code     2  startup_stm32f4xx.o(.text)
    ADC_IRQHandler                           0x08008837   Thumb Code     0  startup_stm32f4xx.o(.text)
    CAN1_RX1_IRQHandler                      0x08008837   Thumb Code     0  startup_stm32f4xx.o(.text)
    CAN1_SCE_IRQHandler                      0x08008837   Thumb Code     0  startup_stm32f4xx.o(.text)
    CAN1_TX_IRQHandler                       0x08008837   Thumb Code     0  startup_stm32f4xx.o(.text)
    CAN2_RX0_IRQHandler                      0x08008837   Thumb Code     0  startup_stm32f4xx.o(.text)
    CAN2_RX1_IRQHandler                      0x08008837   Thumb Code     0  startup_stm32f4xx.o(.text)
    CAN2_SCE_IRQHandler                      0x08008837   Thumb Code     0  startup_stm32f4xx.o(.text)
    CAN2_TX_IRQHandler                       0x08008837   Thumb Code     0  startup_stm32f4xx.o(.text)
    CRYP_IRQHandler                          0x08008837   Thumb Code     0  startup_stm32f4xx.o(.text)
    DCMI_IRQHandler                          0x08008837   Thumb Code     0  startup_stm32f4xx.o(.text)
    DMA1_Stream0_IRQHandler                  0x08008837   Thumb Code     0  startup_stm32f4xx.o(.text)
    DMA1_Stream1_IRQHandler                  0x08008837   Thumb Code     0  startup_stm32f4xx.o(.text)
    DMA1_Stream2_IRQHandler                  0x08008837   Thumb Code     0  startup_stm32f4xx.o(.text)
    DMA1_Stream3_IRQHandler                  0x08008837   Thumb Code     0  startup_stm32f4xx.o(.text)
    DMA1_Stream4_IRQHandler                  0x08008837   Thumb Code     0  startup_stm32f4xx.o(.text)
    DMA1_Stream5_IRQHandler                  0x08008837   Thumb Code     0  startup_stm32f4xx.o(.text)
    DMA1_Stream6_IRQHandler                  0x08008837   Thumb Code     0  startup_stm32f4xx.o(.text)
    DMA1_Stream7_IRQHandler                  0x08008837   Thumb Code     0  startup_stm32f4xx.o(.text)
    DMA2_Stream1_IRQHandler                  0x08008837   Thumb Code     0  startup_stm32f4xx.o(.text)
    DMA2_Stream2_IRQHandler                  0x08008837   Thumb Code     0  startup_stm32f4xx.o(.text)
    DMA2_Stream3_IRQHandler                  0x08008837   Thumb Code     0  startup_stm32f4xx.o(.text)
    DMA2_Stream5_IRQHandler                  0x08008837   Thumb Code     0  startup_stm32f4xx.o(.text)
    ETH_IRQHandler                           0x08008837   Thumb Code     0  startup_stm32f4xx.o(.text)
    ETH_WKUP_IRQHandler                      0x08008837   Thumb Code     0  startup_stm32f4xx.o(.text)
    EXTI0_IRQHandler                         0x08008837   Thumb Code     0  startup_stm32f4xx.o(.text)
    EXTI15_10_IRQHandler                     0x08008837   Thumb Code     0  startup_stm32f4xx.o(.text)
    EXTI1_IRQHandler                         0x08008837   Thumb Code     0  startup_stm32f4xx.o(.text)
    EXTI2_IRQHandler                         0x08008837   Thumb Code     0  startup_stm32f4xx.o(.text)
    EXTI3_IRQHandler                         0x08008837   Thumb Code     0  startup_stm32f4xx.o(.text)
    EXTI4_IRQHandler                         0x08008837   Thumb Code     0  startup_stm32f4xx.o(.text)
    EXTI9_5_IRQHandler                       0x08008837   Thumb Code     0  startup_stm32f4xx.o(.text)
    FLASH_IRQHandler                         0x08008837   Thumb Code     0  startup_stm32f4xx.o(.text)
    FPU_IRQHandler                           0x08008837   Thumb Code     0  startup_stm32f4xx.o(.text)
    FSMC_IRQHandler                          0x08008837   Thumb Code     0  startup_stm32f4xx.o(.text)
    HASH_RNG_IRQHandler                      0x08008837   Thumb Code     0  startup_stm32f4xx.o(.text)
    I2C1_ER_IRQHandler                       0x08008837   Thumb Code     0  startup_stm32f4xx.o(.text)
    I2C1_EV_IRQHandler                       0x08008837   Thumb Code     0  startup_stm32f4xx.o(.text)
    I2C2_ER_IRQHandler                       0x08008837   Thumb Code     0  startup_stm32f4xx.o(.text)
    I2C2_EV_IRQHandler                       0x08008837   Thumb Code     0  startup_stm32f4xx.o(.text)
    I2C3_ER_IRQHandler                       0x08008837   Thumb Code     0  startup_stm32f4xx.o(.text)
    I2C3_EV_IRQHandler                       0x08008837   Thumb Code     0  startup_stm32f4xx.o(.text)
    OTG_FS_IRQHandler                        0x08008837   Thumb Code     0  startup_stm32f4xx.o(.text)
    OTG_FS_WKUP_IRQHandler                   0x08008837   Thumb Code     0  startup_stm32f4xx.o(.text)
    OTG_HS_EP1_IN_IRQHandler                 0x08008837   Thumb Code     0  startup_stm32f4xx.o(.text)
    OTG_HS_EP1_OUT_IRQHandler                0x08008837   Thumb Code     0  startup_stm32f4xx.o(.text)
    OTG_HS_IRQHandler                        0x08008837   Thumb Code     0  startup_stm32f4xx.o(.text)
    OTG_HS_WKUP_IRQHandler                   0x08008837   Thumb Code     0  startup_stm32f4xx.o(.text)
    PVD_IRQHandler                           0x08008837   Thumb Code     0  startup_stm32f4xx.o(.text)
    RCC_IRQHandler                           0x08008837   Thumb Code     0  startup_stm32f4xx.o(.text)
    RTC_Alarm_IRQHandler                     0x08008837   Thumb Code     0  startup_stm32f4xx.o(.text)
    RTC_WKUP_IRQHandler                      0x08008837   Thumb Code     0  startup_stm32f4xx.o(.text)
    SDIO_IRQHandler                          0x08008837   Thumb Code     0  startup_stm32f4xx.o(.text)
    SPI1_IRQHandler                          0x08008837   Thumb Code     0  startup_stm32f4xx.o(.text)
    SPI3_IRQHandler                          0x08008837   Thumb Code     0  startup_stm32f4xx.o(.text)
    TAMP_STAMP_IRQHandler                    0x08008837   Thumb Code     0  startup_stm32f4xx.o(.text)
    TIM1_BRK_TIM9_IRQHandler                 0x08008837   Thumb Code     0  startup_stm32f4xx.o(.text)
    TIM1_CC_IRQHandler                       0x08008837   Thumb Code     0  startup_stm32f4xx.o(.text)
    TIM1_TRG_COM_TIM11_IRQHandler            0x08008837   Thumb Code     0  startup_stm32f4xx.o(.text)
    TIM1_UP_TIM10_IRQHandler                 0x08008837   Thumb Code     0  startup_stm32f4xx.o(.text)
    TIM2_IRQHandler                          0x08008837   Thumb Code     0  startup_stm32f4xx.o(.text)
    TIM4_IRQHandler                          0x08008837   Thumb Code     0  startup_stm32f4xx.o(.text)
    TIM5_IRQHandler                          0x08008837   Thumb Code     0  startup_stm32f4xx.o(.text)
    TIM6_DAC_IRQHandler                      0x08008837   Thumb Code     0  startup_stm32f4xx.o(.text)
    TIM7_IRQHandler                          0x08008837   Thumb Code     0  startup_stm32f4xx.o(.text)
    TIM8_BRK_TIM12_IRQHandler                0x08008837   Thumb Code     0  startup_stm32f4xx.o(.text)
    TIM8_CC_IRQHandler                       0x08008837   Thumb Code     0  startup_stm32f4xx.o(.text)
    TIM8_TRG_COM_TIM14_IRQHandler            0x08008837   Thumb Code     0  startup_stm32f4xx.o(.text)
    TIM8_UP_TIM13_IRQHandler                 0x08008837   Thumb Code     0  startup_stm32f4xx.o(.text)
    UART5_IRQHandler                         0x08008837   Thumb Code     0  startup_stm32f4xx.o(.text)
    USART2_IRQHandler                        0x08008837   Thumb Code     0  startup_stm32f4xx.o(.text)
    USART3_IRQHandler                        0x08008837   Thumb Code     0  startup_stm32f4xx.o(.text)
    USART6_IRQHandler                        0x08008837   Thumb Code     0  startup_stm32f4xx.o(.text)
    WWDG_IRQHandler                          0x08008837   Thumb Code     0  startup_stm32f4xx.o(.text)
    SystemInit                               0x08008917   Thumb Code    88  system_stm32f4xx.o(.text)
    SystemCoreClockUpdate                    0x0800896f   Thumb Code   178  system_stm32f4xx.o(.text)
    OS_CPU_SR_Save                           0x08008a4d   Thumb Code     0  os_cpu_a.o(.text)
    OS_CPU_SR_Restore                        0x08008a55   Thumb Code     0  os_cpu_a.o(.text)
    OSStartHighRdy                           0x08008a5b   Thumb Code     0  os_cpu_a.o(.text)
    OSCtxSw                                  0x08008a7b   Thumb Code     0  os_cpu_a.o(.text)
    OSIntCtxSw                               0x08008a85   Thumb Code     0  os_cpu_a.o(.text)
    OS_CPU_PendSVHandler                     0x08008a8f   Thumb Code     0  os_cpu_a.o(.text)
    CPU_IntDisable                           0x08008ae9   Thumb Code     0  os_cpu_a.o(.text)
    CPU_IntEnable                            0x08008aed   Thumb Code     0  os_cpu_a.o(.text)
    OSInitHookBegin                          0x08008b11   Thumb Code     8  os_cpu_c.o(.text)
    OSInitHookEnd                            0x08008b19   Thumb Code     8  os_cpu_c.o(.text)
    OSTaskCreateHook                         0x08008b21   Thumb Code     2  os_cpu_c.o(.text)
    OSTaskDelHook                            0x08008b23   Thumb Code     2  os_cpu_c.o(.text)
    OSTaskIdleHook                           0x08008b25   Thumb Code     2  os_cpu_c.o(.text)
    OSTaskReturnHook                         0x08008b27   Thumb Code     2  os_cpu_c.o(.text)
    OSTaskStatHook                           0x08008b29   Thumb Code     2  os_cpu_c.o(.text)
    OSTaskStkInit                            0x08008b2b   Thumb Code   212  os_cpu_c.o(.text)
    OSTaskSwHook                             0x08008bff   Thumb Code     2  os_cpu_c.o(.text)
    OSTCBInitHook                            0x08008c01   Thumb Code     2  os_cpu_c.o(.text)
    OS_CPU_SysTickHandler                    0x08008c03   Thumb Code    34  os_cpu_c.o(.text)
    OS_CPU_SysTickInit                       0x08008c25   Thumb Code    42  os_cpu_c.o(.text)
    OS_StrLen                                0x08008c5d   Thumb Code    20  os_core.o(.text)
    OSEventNameGet                           0x08008c71   Thumb Code    98  os_core.o(.text)
    OSEventNameSet                           0x08008cd3   Thumb Code    84  os_core.o(.text)
    OS_EventTaskRemoveMulti                  0x08008d27   Thumb Code    60  os_core.o(.text)
    OS_Sched                                 0x08008d7d   Thumb Code    88  os_core.o(.text)
    OS_EventTaskWaitMulti                    0x08008dd5   Thumb Code   136  os_core.o(.text)
    OSEventPendMulti                         0x08008e5d   Thumb Code   710  os_core.o(.text)
    OS_TaskStatStkChk                        0x08009123   Thumb Code    54  os_core.o(.text)
    OS_TaskStat                              0x08009159   Thumb Code   114  os_core.o(.text)
    OS_TaskIdle                              0x080091ff   Thumb Code    32  os_core.o(.text)
    OS_MemClr                                0x08009253   Thumb Code    18  os_core.o(.text)
    OSInit                                   0x08009343   Thumb Code    48  os_core.o(.text)
    OSIntEnter                               0x08009373   Thumb Code    44  os_core.o(.text)
    OSIntExit                                0x0800939f   Thumb Code   112  os_core.o(.text)
    OSSchedLock                              0x0800940f   Thumb Code    50  os_core.o(.text)
    OSSchedUnlock                            0x08009441   Thumb Code   228  os_core.o(.text)
    OSStart                                  0x08009525   Thumb Code    48  os_core.o(.text)
    OSStatInit                               0x08009555   Thumb Code    62  os_core.o(.text)
    OSTimeTick                               0x08009593   Thumb Code   214  os_core.o(.text)
    OSVersion                                0x08009669   Thumb Code     6  os_core.o(.text)
    OS_Dummy                                 0x0800966f   Thumb Code     2  os_core.o(.text)
    OS_EventTaskRemove                       0x08009671   Thumb Code    42  os_core.o(.text)
    OS_EventTaskRdy                          0x0800969b   Thumb Code   132  os_core.o(.text)
    OS_EventTaskWait                         0x0800971f   Thumb Code   112  os_core.o(.text)
    OS_EventWaitListInit                     0x0800978f   Thumb Code    28  os_core.o(.text)
    OS_MemCopy                               0x080097ab   Thumb Code    20  os_core.o(.text)
    OS_TCBInit                               0x080097bf   Thumb Code   394  os_core.o(.text)
    OSFlagAccept                             0x08009949   Thumb Code   252  os_flag.o(.text)
    OSFlagCreate                             0x08009a45   Thumb Code    86  os_flag.o(.text)
    OS_FlagUnlink                            0x08009a9b   Thumb Code    36  os_flag.o(.text)
    OSFlagDel                                0x08009b1f   Thumb Code   214  os_flag.o(.text)
    OSFlagNameGet                            0x08009bf5   Thumb Code    80  os_flag.o(.text)
    OSFlagNameSet                            0x08009c45   Thumb Code    66  os_flag.o(.text)
    OSFlagPend                               0x08009d0b   Thumb Code   614  os_flag.o(.text)
    OSFlagPendGetFlagsRdy                    0x08009f71   Thumb Code    26  os_flag.o(.text)
    OSFlagPost                               0x08009f8b   Thumb Code   312  os_flag.o(.text)
    OSFlagQuery                              0x0800a0c3   Thumb Code    48  os_flag.o(.text)
    OS_FlagInit                              0x0800a0f3   Thumb Code    64  os_flag.o(.text)
    OSMemCreate                              0x0800a141   Thumb Code   114  os_mem.o(.text)
    OSMemGet                                 0x0800a1b3   Thumb Code    62  os_mem.o(.text)
    OSMemNameGet                             0x0800a1f1   Thumb Code    60  os_mem.o(.text)
    OSMemNameSet                             0x0800a22d   Thumb Code    48  os_mem.o(.text)
    OSMemPut                                 0x0800a25d   Thumb Code    54  os_mem.o(.text)
    OSMemQuery                               0x0800a293   Thumb Code    52  os_mem.o(.text)
    OS_MemInit                               0x0800a2c7   Thumb Code    60  os_mem.o(.text)
    OSQAccept                                0x0800a315   Thumb Code    88  os_q.o(.text)
    OSQCreate                                0x0800a36d   Thumb Code   144  os_q.o(.text)
    OSQDel                                   0x0800a3fd   Thumb Code   244  os_q.o(.text)
    OSQFlush                                 0x0800a4f1   Thumb Code    36  os_q.o(.text)
    OSQPend                                  0x0800a515   Thumb Code   278  os_q.o(.text)
    OSQPendAbort                             0x0800a62b   Thumb Code   128  os_q.o(.text)
    OSQPost                                  0x0800a6ab   Thumb Code   114  os_q.o(.text)
    OSQPostFront                             0x0800a71d   Thumb Code   142  os_q.o(.text)
    OSQPostOpt                               0x0800a7ab   Thumb Code   182  os_q.o(.text)
    OSQQuery                                 0x0800a861   Thumb Code    98  os_q.o(.text)
    OS_QInit                                 0x0800a8c3   Thumb Code    46  os_q.o(.text)
    OSSemAccept                              0x0800a8f9   Thumb Code    42  os_sem.o(.text)
    OSSemCreate                              0x0800a923   Thumb Code    72  os_sem.o(.text)
    OSSemDel                                 0x0800a96b   Thumb Code   210  os_sem.o(.text)
    OSSemPend                                0x0800aa3d   Thumb Code   228  os_sem.o(.text)
    OSSemPendAbort                           0x0800ab21   Thumb Code   128  os_sem.o(.text)
    OSSemPost                                0x0800aba1   Thumb Code    88  os_sem.o(.text)
    OSSemQuery                               0x0800abf9   Thumb Code    82  os_sem.o(.text)
    OSSemSet                                 0x0800ac4b   Thumb Code    66  os_sem.o(.text)
    OSTaskChangePrio                         0x0800aca1   Thumb Code   390  os_task.o(.text)
    OSTaskCreate                             0x0800ae27   Thumb Code   148  os_task.o(.text)
    OS_TaskStkClr                            0x0800aebb   Thumb Code    26  os_task.o(.text)
    OSTaskCreateExt                          0x0800aed5   Thumb Code   184  os_task.o(.text)
    OSTaskDel                                0x0800af8d   Thumb Code   344  os_task.o(.text)
    OSTaskDelReq                             0x0800b0e5   Thumb Code   100  os_task.o(.text)
    OSTaskNameGet                            0x0800b149   Thumb Code   114  os_task.o(.text)
    OSTaskNameSet                            0x0800b1bb   Thumb Code    98  os_task.o(.text)
    OSTaskResume                             0x0800b21d   Thumb Code   160  os_task.o(.text)
    OSTaskStkChk                             0x0800b2bd   Thumb Code   132  os_task.o(.text)
    OSTaskSuspend                            0x0800b341   Thumb Code   152  os_task.o(.text)
    OSTaskQuery                              0x0800b3d9   Thumb Code    82  os_task.o(.text)
    OSTaskRegGet                             0x0800b42b   Thumb Code    60  os_task.o(.text)
    OSTaskRegSet                             0x0800b467   Thumb Code    94  os_task.o(.text)
    OS_TaskReturn                            0x0800b4c5   Thumb Code    18  os_task.o(.text)
    OSTimeDly                                0x0800b4dd   Thumb Code    92  os_time.o(.text)
    OSTimeDlyHMSM                            0x0800b539   Thumb Code    78  os_time.o(.text)
    OSTimeDlyResume                          0x0800b587   Thumb Code   176  os_time.o(.text)
    OSTimeGet                                0x0800b637   Thumb Code    24  os_time.o(.text)
    OSTimeSet                                0x0800b64f   Thumb Code    24  os_time.o(.text)
    SysTick_Configuration                    0x0800b681   Thumb Code    92  systick.o(.text)
    Time_Update                              0x0800b6dd   Thumb Code     2  systick.o(.text)
    TimingDelay_Decrement                    0x0800b6df   Thumb Code    18  systick.o(.text)
    timeDiff                                 0x0800b6f1   Thumb Code    16  systick.o(.text)
    isDelayExp                               0x0800b701   Thumb Code    38  systick.o(.text)
    TIM_Configuration                        0x0800b739   Thumb Code   214  timer.o(.text)
    TIM3_IRQHandler                          0x0800b80f   Thumb Code   154  timer.o(.text)
    icoCobCreate                             0x0800b8c5   Thumb Code   184  co_cobhandler.o(.text)
    icoCobSet                                0x0800b97d   Thumb Code   104  co_cobhandler.o(.text)
    icoCobChangeType                         0x0800b9e5   Thumb Code    34  co_cobhandler.o(.text)
    icoCobSetInhibit                         0x0800ba07   Thumb Code    46  co_cobhandler.o(.text)
    icoCobSetIgnore                          0x0800ba35   Thumb Code    34  co_cobhandler.o(.text)
    icoCobGet                                0x0800ba57   Thumb Code    78  co_cobhandler.o(.text)
    icoCobEnable                             0x0800baa5   Thumb Code    36  co_cobhandler.o(.text)
    icoCobDisable                            0x0800bac9   Thumb Code    36  co_cobhandler.o(.text)
    icoCobGetPointer                         0x0800baed   Thumb Code    30  co_cobhandler.o(.text)
    icoCobCheck                              0x0800bb0b   Thumb Code   100  co_cobhandler.o(.text)
    icoCobDisableAll                         0x0800bb6f   Thumb Code    26  co_cobhandler.o(.text)
    icoCheckRestrictedCobs                   0x0800bb89   Thumb Code    54  co_cobhandler.o(.text)
    icoCobHandlerVarInit                     0x0800bbbf   Thumb Code     8  co_cobhandler.o(.text)
    coCommTask                               0x0800bc9b   Thumb Code    16  co_commtask.o(.text)
    coCommTaskSet                            0x0800bcab   Thumb Code    40  co_commtask.o(.text)
    coCommStateEvent                         0x0800bcd3   Thumb Code   202  co_commtask.o(.text)
    icoCommTaskVarInit                       0x0800bd9d   Thumb Code    42  co_commtask.o(.text)
    coEventRegister_CAN_STATE                0x0800bdc7   Thumb Code    36  co_commtask.o(.text)
    coEventRegister_COMM_EVENT               0x0800bdeb   Thumb Code    36  co_commtask.o(.text)
    coEmcyWriteReq                           0x0800be3d   Thumb Code   268  co_emcy.o(.text)
    icoEmcyWriteReq                          0x0800bf49   Thumb Code    20  co_emcy.o(.text)
    icoEmcyGetObjectAddr                     0x0800bf5d   Thumb Code    66  co_emcy.o(.text)
    icoEmcyCheckObjLimitCobid                0x0800bf9f   Thumb Code    76  co_emcy.o(.text)
    icoEmcyObjChanged                        0x0800bfeb   Thumb Code    78  co_emcy.o(.text)
    icoEmcyCheckObjLimitHist                 0x0800c039   Thumb Code    22  co_emcy.o(.text)
    icoEmcyReset                             0x0800c04f   Thumb Code    20  co_emcy.o(.text)
    icoEmcyProducerSetDefaultValue           0x0800c063   Thumb Code    86  co_emcy.o(.text)
    coEmcyProducerInit                       0x0800c0b9   Thumb Code    36  co_emcy.o(.text)
    icoEmcyVarInit                           0x0800c0dd   Thumb Code    26  co_emcy.o(.text)
    coHbConsumerSet                          0x0800c173   Thumb Code   138  co_errctrl.o(.text)
    icoErrorBehavior                         0x0800c1fd   Thumb Code    44  co_errctrl.o(.text)
    icoErrCtrlInd                            0x0800c229   Thumb Code    42  co_errctrl.o(.text)
    coHbConsumerStart                        0x0800c279   Thumb Code   116  co_errctrl.o(.text)
    icoHbProdStart                           0x0800c309   Thumb Code    56  co_errctrl.o(.text)
    icoNmtErrorCtrlHandler                   0x0800c341   Thumb Code   264  co_errctrl.o(.text)
    coNmtGetRemoteNodeState                  0x0800c449   Thumb Code    80  co_errctrl.o(.text)
    icoErrCtrlGetObjectAddr                  0x0800c499   Thumb Code    58  co_errctrl.o(.text)
    icoErrCtrlCheckObjLimit                  0x0800c4d3   Thumb Code   134  co_errctrl.o(.text)
    icoErrCtrlObjChanged                     0x0800c559   Thumb Code    50  co_errctrl.o(.text)
    coEventRegister_ERRCTRL                  0x0800c58b   Thumb Code    36  co_errctrl.o(.text)
    icoErrorCtrlReset                        0x0800c5af   Thumb Code    76  co_errctrl.o(.text)
    icoErrorCtrlSetDefaultValue              0x0800c5fb   Thumb Code   104  co_errctrl.o(.text)
    icoErrorCtrlVarInit                      0x0800c663   Thumb Code    56  co_errctrl.o(.text)
    coErrorCtrlInit                          0x0800c69b   Thumb Code   120  co_errctrl.o(.text)
    icoEventStart                            0x0800c72d   Thumb Code    58  co_event.o(.text)
    icoEventIsActive                         0x0800c767   Thumb Code    26  co_event.o(.text)
    icoEventCheck                            0x0800c781   Thumb Code    40  co_event.o(.text)
    icoEventInit                             0x0800c7a9   Thumb Code     8  co_event.o(.text)
    coLssNonConfigSlave                      0x0800cdab   Thumb Code    46  co_lss.o(.text)
    icoLssHandler                            0x0800cdd9   Thumb Code   226  co_lss.o(.text)
    coEventRegister_LSS                      0x0800cebb   Thumb Code    36  co_lss.o(.text)
    icoLssReset                              0x0800cedf   Thumb Code    44  co_lss.o(.text)
    icoLssResetNodeId                        0x0800cf0b   Thumb Code    18  co_lss.o(.text)
    icoLssResetAppl                          0x0800cf1d   Thumb Code    12  co_lss.o(.text)
    icoLssVarInit                            0x0800cf29   Thumb Code    26  co_lss.o(.text)
    coLssInit                                0x0800cf43   Thumb Code    76  co_lss.o(.text)
    icoNmtStateChange                        0x0800cfb9   Thumb Code   124  co_nmt.o(.text)
    icoNmtPersistantNodeIdGet                0x0800d055   Thumb Code    22  co_nmt.o(.text)
    icoNmtMsgHandler                         0x0800d11f   Thumb Code   170  co_nmt.o(.text)
    coEventRegister_NMT                      0x0800d1c9   Thumb Code    36  co_nmt.o(.text)
    coNmtGetNodeId                           0x0800d1ed   Thumb Code     6  co_nmt.o(.text)
    icoNmtGetCob                             0x0800d1f3   Thumb Code     6  co_nmt.o(.text)
    icoNmtResetNodeId                        0x0800d1f9   Thumb Code    36  co_nmt.o(.text)
    coNmtGetState                            0x0800d21d   Thumb Code     6  co_nmt.o(.text)
    coNmtLocalStateReq                       0x0800d223   Thumb Code    96  co_nmt.o(.text)
    icoNmtVarInit                            0x0800d283   Thumb Code    40  co_nmt.o(.text)
    coNmtInit                                0x0800d2ab   Thumb Code    86  co_nmt.o(.text)
    coNumMemcpyPack                          0x0800d31d   Thumb Code    58  co_odaccess.o(.text)
    coNumMemcpyUnpack                        0x0800d357   Thumb Code    52  co_odaccess.o(.text)
    coNumMemcpy                              0x0800d38b   Thumb Code    34  co_odaccess.o(.text)
    icoEventObjectChanged                    0x0800d3ad   Thumb Code   156  co_odaccess.o(.text)
    coOdGetObjSize                           0x0800d449   Thumb Code   466  co_odaccess.o(.text)
    icoOdPutObj                              0x0800d925   Thumb Code   218  co_odaccess.o(.text)
    coOdGetObjDescPtr                        0x0800dbdd   Thumb Code    94  co_odaccess.o(.text)
    coOdPutObj_u32                           0x0800dc3b   Thumb Code   222  co_odaccess.o(.text)
    coOdSetCobid                             0x0800dd19   Thumb Code    44  co_odaccess.o(.text)
    coOdGetObjAddr                           0x0800dd45   Thumb Code    36  co_odaccess.o(.text)
    icoOdGetObj                              0x0800de3d   Thumb Code   132  co_odaccess.o(.text)
    coOdGetObj_u8                            0x0800dec1   Thumb Code   176  co_odaccess.o(.text)
    coOdGetObj_u16                           0x0800df71   Thumb Code   132  co_odaccess.o(.text)
    coOdGetObj_u32                           0x0800dff5   Thumb Code   212  co_odaccess.o(.text)
    coOdGetObj_i8                            0x0800e0c9   Thumb Code    82  co_odaccess.o(.text)
    coOdGetObj_i16                           0x0800e11b   Thumb Code    82  co_odaccess.o(.text)
    coOdGetObj_i32                           0x0800e16d   Thumb Code    82  co_odaccess.o(.text)
    coOdGetObj_r32                           0x0800e1bf   Thumb Code    82  co_odaccess.o(.text)
    coOdPutObj_u8                            0x0800e2e3   Thumb Code   228  co_odaccess.o(.text)
    coOdPutObj_u16                           0x0800e479   Thumb Code   180  co_odaccess.o(.text)
    coOdPutObj_i8                            0x0800e52d   Thumb Code    98  co_odaccess.o(.text)
    coOdPutObj_i16                           0x0800e58f   Thumb Code    98  co_odaccess.o(.text)
    coOdPutObj_i32                           0x0800e5f1   Thumb Code   110  co_odaccess.o(.text)
    coOdPutObj_r32                           0x0800e65f   Thumb Code   102  co_odaccess.o(.text)
    coOdGetObjAttribute                      0x0800e6c5   Thumb Code     6  co_odaccess.o(.text)
    coOdDomainAddrSet                        0x0800e6cb   Thumb Code    72  co_odaccess.o(.text)
    coOdVisStringSet                         0x0800e713   Thumb Code    72  co_odaccess.o(.text)
    icoOdCheckObjLimits                      0x0800e8bd   Thumb Code   280  co_odaccess.o(.text)
    icoOdGetObjRecMapData                    0x0800e9d5   Thumb Code   180  co_odaccess.o(.text)
    icoOdGetObjTrMapData                     0x0800ea89   Thumb Code   148  co_odaccess.o(.text)
    icoOdCheckObjAttr                        0x0800eb1d   Thumb Code    60  co_odaccess.o(.text)
    coOdGetDefaultVal_u8                     0x0800eb59   Thumb Code   148  co_odaccess.o(.text)
    coOdGetDefaultVal_u16                    0x0800ebed   Thumb Code   114  co_odaccess.o(.text)
    coOdGetDefaultVal_u32                    0x0800ec5f   Thumb Code   158  co_odaccess.o(.text)
    icoOdGetNumberOfSubs                     0x0800ecfd   Thumb Code    46  co_odaccess.o(.text)
    icoOdSetLoadParaState                    0x0800ed2b   Thumb Code     6  co_odaccess.o(.text)
    icoOdReset                               0x0800ed31   Thumb Code   862  co_odaccess.o(.text)
    icoOdAccessVarInit                       0x0800f08f   Thumb Code   124  co_odaccess.o(.text)
    coOdInitOdPtr                            0x0800f10b   Thumb Code   336  co_odaccess.o(.text)
    icoPdoSearchTrPdoIndex                   0x0800f36d   Thumb Code    52  co_pdo.o(.text)
    coPdoReqNr                               0x0800f3a1   Thumb Code   104  co_pdo.o(.text)
    coPdoReqObj                              0x0800f409   Thumb Code   166  co_pdo.o(.text)
    icoPdoRtrHandler                         0x0800f4af   Thumb Code    76  co_pdo.o(.text)
    icoPdoSyncHandling                       0x0800f4fb   Thumb Code   154  co_pdo.o(.text)
    icoTrPdoGetObjectAddr                    0x0800f595   Thumb Code    74  co_pdo.o(.text)
    icoTrMapGetObjectAddr                    0x0800f5df   Thumb Code    54  co_pdo.o(.text)
    icoTrMapGetObjectAddr_R                  0x0800f615   Thumb Code    54  co_pdo.o(.text)
    icoTrPdoCheckObjLimit_u8                 0x0800f64b   Thumb Code    76  co_pdo.o(.text)
    icoTrPdoCheckObjLimit_u16                0x0800f697   Thumb Code    52  co_pdo.o(.text)
    icoTrPdoCheckObjLimitCobid               0x0800f6cb   Thumb Code    78  co_pdo.o(.text)
    icoTrMapCheckObjLimitMapTable            0x0800f7c9   Thumb Code    72  co_pdo.o(.text)
    icoTrMapCheckObjLimitMapEntry            0x0800f811   Thumb Code    76  co_pdo.o(.text)
    icoTrPdoObjChanged                       0x0800f8f7   Thumb Code   148  co_pdo.o(.text)
    icoTrPdoMapChanged                       0x0800f98b   Thumb Code    24  co_pdo.o(.text)
    icoPdoOperational                        0x0800f9a3   Thumb Code    48  co_pdo.o(.text)
    icoPdoPreOperational                     0x0800f9d3   Thumb Code    40  co_pdo.o(.text)
    icoPdoReset                              0x0800f9fb   Thumb Code    80  co_pdo.o(.text)
    icoPdoSetDefaultValue                    0x0800fa4b   Thumb Code   230  co_pdo.o(.text)
    icoPdoVarInit                            0x0800fb31   Thumb Code     8  co_pdo.o(.text)
    coPdoTransmitInit                        0x0800fb39   Thumb Code   210  co_pdo.o(.text)
    icoQueueGetReceiveMessage                0x0800fc19   Thumb Code   190  co_queue.o(.text)
    coQueueReceiveMessageAvailable           0x0800fcd7   Thumb Code    20  co_queue.o(.text)
    coQueueGetReceiveBuffer                  0x0800fceb   Thumb Code    44  co_queue.o(.text)
    coQueueReceiveBufferIsFilled             0x0800fd17   Thumb Code    50  co_queue.o(.text)
    icoTransmitMessage                       0x0800fe01   Thumb Code   346  co_queue.o(.text)
    icoQueueInhibitActive                    0x0800ff5b   Thumb Code    60  co_queue.o(.text)
    coQueueGetNextTransmitMessage            0x0800fff9   Thumb Code    84  co_queue.o(.text)
    coQueueMsgTransmitted                    0x0801004d   Thumb Code    10  co_queue.o(.text)
    icoQueueHandler                          0x08010065   Thumb Code   156  co_queue.o(.text)
    icoQueueDeleteInhibit                    0x08010101   Thumb Code    36  co_queue.o(.text)
    icoQueueDisable                          0x08010125   Thumb Code    12  co_queue.o(.text)
    coQueueInit                              0x08010131   Thumb Code    80  co_queue.o(.text)
    icoQueueVarInit                          0x08010181   Thumb Code    36  co_queue.o(.text)
    icoSdoDeCodeMultiplexer                  0x080101d9   Thumb Code    16  co_sdoserv.o(.text)
    icoSdoServerAbort                        0x080101e9   Thumb Code   108  co_sdoserv.o(.text)
    icoSdoCheckUserReadInd                   0x0801039d   Thumb Code   104  co_sdoserv.o(.text)
    icoSdoCheckUserWriteInd                  0x080104eb   Thumb Code   100  co_sdoserv.o(.text)
    icoSdoCheckUserCheckWriteInd             0x08010649   Thumb Code    98  co_sdoserv.o(.text)
    icoSdoServerHandler                      0x08010865   Thumb Code   174  co_sdoserv.o(.text)
    icoSdoServerPtr                          0x0801093f   Thumb Code    34  co_sdoserv.o(.text)
    coEventRegister_SDO_SERVER_READ          0x08010961   Thumb Code    36  co_sdoserv.o(.text)
    coEventRegister_SDO_SERVER_CHECK_WRITE   0x08010985   Thumb Code    36  co_sdoserv.o(.text)
    coEventRegister_SDO_SERVER_WRITE         0x080109a9   Thumb Code    36  co_sdoserv.o(.text)
    icoSdoDomainUserWriteInd                 0x080109cd   Thumb Code     2  co_sdoserv.o(.text)
    icoSdoGetObjectAddr                      0x080109cf   Thumb Code   130  co_sdoserv.o(.text)
    icoSdoCheckObjLimitNode                  0x08010a51   Thumb Code    30  co_sdoserv.o(.text)
    icoSdoCheckObjLimitCobId                 0x08010a6f   Thumb Code   156  co_sdoserv.o(.text)
    icoSdoObjChanged                         0x08010b0b   Thumb Code   118  co_sdoserv.o(.text)
    icoSdoServerReset                        0x08010b81   Thumb Code   140  co_sdoserv.o(.text)
    icoSdoServerSetDefaultValue              0x08010c0d   Thumb Code   134  co_sdoserv.o(.text)
    icoSdoServerVarInit                      0x08010c93   Thumb Code    34  co_sdoserv.o(.text)
    coSdoServerInit                          0x08010cb5   Thumb Code   140  co_sdoserv.o(.text)
    coSleepModeStart                         0x08010dd7   Thumb Code    40  co_sleep.o(.text)
    icoSleepMsgHandler                       0x08010dff   Thumb Code   138  co_sleep.o(.text)
    coSleepWakeUp                            0x08010ead   Thumb Code   118  co_sleep.o(.text)
    coSleepAwake                             0x08010f23   Thumb Code    38  co_sleep.o(.text)
    coSleepModeActive                        0x08010f49   Thumb Code     6  co_sleep.o(.text)
    coSleepRequestSleep                      0x08010f4f   Thumb Code    28  co_sleep.o(.text)
    coEventRegister_SLEEP                    0x08010f6b   Thumb Code    36  co_sleep.o(.text)
    icoSleepReset                            0x08010f8f   Thumb Code    56  co_sleep.o(.text)
    icoSleepVarInit                          0x08010fc7   Thumb Code    30  co_sleep.o(.text)
    icoSleepInit                             0x08010fe5   Thumb Code   136  co_sleep.o(.text)
    coCanOpenStackVarInit                    0x080110a1   Thumb Code    82  co_stackinit.o(.text)
    icoStoreLoadReq                          0x080110f5   Thumb Code    50  co_store.o(.text)
    coEventRegister_LOAD_PARA                0x08011127   Thumb Code    42  co_store.o(.text)
    icoSyncHandler                           0x08011195   Thumb Code    24  co_sync.o(.text)
    icoSyncGetObjectAddr                     0x0801120b   Thumb Code    48  co_sync.o(.text)
    icoSyncCheckObjLimit_u8                  0x0801123b   Thumb Code    36  co_sync.o(.text)
    icoSyncCheckObjLimit_u32                 0x0801125f   Thumb Code    70  co_sync.o(.text)
    icoSyncObjChanged                        0x080112a5   Thumb Code   214  co_sync.o(.text)
    coEventRegister_SYNC                     0x0801137b   Thumb Code    42  co_sync.o(.text)
    coEventRegister_SYNC_FINISHED            0x080113a5   Thumb Code    36  co_sync.o(.text)
    icoSyncReset                             0x080113c9   Thumb Code    12  co_sync.o(.text)
    icoSyncVarInit                           0x080113d5   Thumb Code    48  co_sync.o(.text)
    icoSyncSetDefaultValue                   0x08011405   Thumb Code   102  co_sync.o(.text)
    coSyncInit                               0x0801146b   Thumb Code    60  co_sync.o(.text)
    coTimerStop                              0x0801153d   Thumb Code    48  co_timer.o(.text)
    coTimerStart                             0x0801156d   Thumb Code    92  co_timer.o(.text)
    coTimerIsActive                          0x080115c9   Thumb Code    26  co_timer.o(.text)
    coTimerAttrChange                        0x080115e3   Thumb Code     4  co_timer.o(.text)
    coTimerTick                              0x080115e7   Thumb Code    20  co_timer.o(.text)
    icoTimerCheck                            0x080115fb   Thumb Code   126  co_timer.o(.text)
    coTimerInit                              0x08011679   Thumb Code    16  co_timer.o(.text)
    codrvCanEnable                           0x08011697   Thumb Code     4  codrv_can_generic.o(.text)
    codrvCanDisable                          0x080116c7   Thumb Code    10  codrv_can_generic.o(.text)
    codrvCanSetBitRate                       0x080116d1   Thumb Code    40  codrv_can_generic.o(.text)
    codrvCanInit                             0x08011723   Thumb Code    16  codrv_can_generic.o(.text)
    codrvCanReInit                           0x08011733   Thumb Code    16  codrv_can_generic.o(.text)
    codrvCanTransmitInterrupt                0x08011761   Thumb Code    52  codrv_can_generic.o(.text)
    codrvCanStartTransmission                0x08011795   Thumb Code    16  codrv_can_generic.o(.text)
    codrvCanReceiveInterrupt                 0x080117a5   Thumb Code    68  codrv_can_generic.o(.text)
    codrvCanDriverHandler                    0x08011815   Thumb Code    12  codrv_can_generic.o(.text)
    codrvHardwareCanInit                     0x08011831   Thumb Code     2  codrv_cpu_generic.o(.text)
    codrvHardwareInit                        0x08011833   Thumb Code     8  codrv_cpu_generic.o(.text)
    codrvCanEnableInterrupt                  0x0801183b   Thumb Code     2  codrv_cpu_generic.o(.text)
    codrvCanDisableInterrupt                 0x0801183d   Thumb Code     2  codrv_cpu_generic.o(.text)
    codrvCanSetTxInterrupt                   0x0801183f   Thumb Code     2  codrv_cpu_generic.o(.text)
    codrvTimerSetup                          0x08011841   Thumb Code     6  codrv_cpu_generic.o(.text)
    codrvTimerISR                            0x08011847   Thumb Code     8  codrv_cpu_generic.o(.text)
    codrvCanErrorGetFlags                    0x08011851   Thumb Code     4  codrv_error.o(.text)
    codrvCanErrorInit                        0x08011855   Thumb Code    22  codrv_error.o(.text)
    codrvCanErrorInformStack                 0x0801186b   Thumb Code   194  codrv_error.o(.text)
    ebBatteryStateChange                     0x08011931   Thumb Code   252  eb_battery.o(.text)
    ebBatteryStateTransition                 0x08011a2d   Thumb Code    52  eb_battery.o(.text)
    ebRegister_BAT_STATE                     0x08011a61   Thumb Code    24  eb_battery.o(.text)
    fillEBBattVoltage                        0x08011a79   Thumb Code   338  eb_battery.o(.text)
    ebRegister_EEPROM                        0x08011be5   Thumb Code    30  eb_eeprom.o(.text)
    iebEepromLoad                            0x08011c03   Thumb Code    48  eb_eeprom.o(.text)
    iebEepromSave                            0x08011c33   Thumb Code    48  eb_eeprom.o(.text)
    ebFrameworkInit                          0x08011c6d   Thumb Code   154  eb_framework.o(.text)
    iebGetPdoMessageOffs                     0x08011d07   Thumb Code   174  eb_framework.o(.text)
    iebUpdateDeviceTPdos                     0x08011db5   Thumb Code   116  eb_framework.o(.text)
    iebUpdateStandardTPdos                   0x08011e29   Thumb Code   136  eb_framework.o(.text)
    iebGetDevIdxFromSubIndex                 0x08011eb1   Thumb Code    16  eb_framework.o(.text)
    ebGetEbDataPtr                           0x08011ec1   Thumb Code    68  eb_framework.o(.text)
    ebRequestEbDataRead                      0x08011f57   Thumb Code    76  eb_framework.o(.text)
    ebRequestEbDataWrite                     0x08011fa3   Thumb Code   102  eb_framework.o(.text)
    ebRequestObjectRead                      0x08012009   Thumb Code    76  eb_framework.o(.text)
    ebRequestObjectWrite                     0x08012055   Thumb Code   126  eb_framework.o(.text)
    ebRequestNodeId                          0x080120d3   Thumb Code    58  eb_framework.o(.text)
    ebSetupRecPdoMSN_1                       0x080121cb   Thumb Code    70  eb_framework.o(.text)
    ebSetupRecPdoMSN_2                       0x08012211   Thumb Code    44  eb_framework.o(.text)
    ebSetupRecPdoMSN_3                       0x0801223d   Thumb Code    52  eb_framework.o(.text)
    iebResponseTransferData                  0x080122e3   Thumb Code    94  eb_framework.o(.text)
    iebSleepInd                              0x08012351   Thumb Code    98  eb_indication.o(.text)
    iebIndInit                               0x080125c3   Thumb Code    92  eb_indication.o(.text)
    ebRegister_NMT                           0x0801261f   Thumb Code    20  eb_indication.o(.text)
    ebRegister_EBCMON                        0x08012633   Thumb Code    20  eb_indication.o(.text)
    ebRegister_ERRCTRL                       0x08012647   Thumb Code    20  eb_indication.o(.text)
    ebRegister_SYNC                          0x0801265b   Thumb Code    20  eb_indication.o(.text)
    ebRegister_SYNC_FINISHED                 0x0801266f   Thumb Code    20  eb_indication.o(.text)
    ebRegister_STATE                         0x08012683   Thumb Code    24  eb_indication.o(.text)
    ebRegister_SDO_WRITE                     0x0801269b   Thumb Code    20  eb_indication.o(.text)
    ebRegister_SDO_READ                      0x080126af   Thumb Code    20  eb_indication.o(.text)
    ebRegister_PDO                           0x080126c3   Thumb Code    20  eb_indication.o(.text)
    ebRegister_COMM_EVENT                    0x080126d7   Thumb Code    22  eb_indication.o(.text)
    ebRegister_CAN_STATE                     0x080126ed   Thumb Code    22  eb_indication.o(.text)
    ebRegister_SLEEP                         0x08012703   Thumb Code    20  eb_indication.o(.text)
    iebLoadIndInit                           0x08012717   Thumb Code     6  eb_indication.o(.text)
    iebLoadInd                               0x0801271d   Thumb Code    28  eb_indication.o(.text)
    ebSleepAwake                             0x08012739   Thumb Code    44  eb_indication.o(.text)
    iebStateCheckChange                      0x08012849   Thumb Code   198  eb_state.o(.text)
    ebStateChange                            0x0801290f   Thumb Code   316  eb_state.o(.text)
    ebStateTransition                        0x08012a4b   Thumb Code    94  eb_state.o(.text)
    iebStateCheckTransition                  0x08012aa9   Thumb Code    52  eb_state.o(.text)
    iebStateSetIndication                    0x08012add   Thumb Code    24  eb_state.o(.text)
    coCanOpenStackInit                       0x08012b19   Thumb Code   260  gen_objdict.o(.text)
    indNmt                                   0x08012c45   Thumb Code     2  usr_ind.o(.text)
    indEbcMon                                0x08012c47   Thumb Code    14  usr_ind.o(.text)
    indEbState                               0x08012c55   Thumb Code     2  usr_ind.o(.text)
    indEbCheckState                          0x08012c57   Thumb Code     6  usr_ind.o(.text)
    indBatState                              0x08012c5d   Thumb Code     2  usr_ind.o(.text)
    indBatCheckState                         0x08012c5f   Thumb Code     6  usr_ind.o(.text)
    indSdoWrite                              0x08012c65   Thumb Code     2  usr_ind.o(.text)
    indCanState                              0x08012c67   Thumb Code     2  usr_ind.o(.text)
    indErrorHandler                          0x08012c69   Thumb Code     2  usr_ind.o(.text)
    eepromWriteInd                           0x08012c6b   Thumb Code     6  usr_ind.o(.text)
    eepromReadInd                            0x08012c71   Thumb Code     6  usr_ind.o(.text)
    sleepInd                                 0x08012c77   Thumb Code     6  usr_ind.o(.text)
    __aeabi_uldivmod                         0x08012c7d   Thumb Code    98  uldiv.o(.text)
    __aeabi_memcpy                           0x08012cdf   Thumb Code    36  memcpya.o(.text)
    __aeabi_memcpy4                          0x08012cdf   Thumb Code     0  memcpya.o(.text)
    __aeabi_memcpy8                          0x08012cdf   Thumb Code     0  memcpya.o(.text)
    __aeabi_memset                           0x08012d03   Thumb Code    14  memseta.o(.text)
    __aeabi_memset4                          0x08012d03   Thumb Code     0  memseta.o(.text)
    __aeabi_memset8                          0x08012d03   Thumb Code     0  memseta.o(.text)
    __aeabi_memclr                           0x08012d11   Thumb Code     4  memseta.o(.text)
    __aeabi_memclr4                          0x08012d11   Thumb Code     0  memseta.o(.text)
    __aeabi_memclr8                          0x08012d11   Thumb Code     0  memseta.o(.text)
    _memset$wrapper                          0x08012d15   Thumb Code    20  memseta.o(.text)
    strlen                                   0x08012d29   Thumb Code    16  strlen.o(.text)
    strncmp                                  0x08012d39   Thumb Code    30  strncmp.o(.text)
    __aeabi_dmul                             0x08012d57   Thumb Code   224  dmul.o(.text)
    __aeabi_ddiv                             0x08012e37   Thumb Code   222  ddiv.o(.text)
    __aeabi_ui2d                             0x08012f15   Thumb Code    26  dfltui.o(.text)
    __aeabi_d2f                              0x08012f2f   Thumb Code    56  d2f.o(.text)
    __aeabi_llsl                             0x08012f67   Thumb Code    30  llshl.o(.text)
    _ll_shift_l                              0x08012f67   Thumb Code     0  llshl.o(.text)
    __aeabi_llsr                             0x08012f85   Thumb Code    32  llushr.o(.text)
    _ll_ushift_r                             0x08012f85   Thumb Code     0  llushr.o(.text)
    __I$use$fp                               0x08012fa5   Thumb Code     0  iusefp.o(.text)
    _float_round                             0x08012fa5   Thumb Code    18  fepilogue.o(.text)
    _float_epilogue                          0x08012fb7   Thumb Code    90  fepilogue.o(.text)
    _double_round                            0x08013011   Thumb Code    26  depilogue.o(.text)
    _double_epilogue                         0x0801302b   Thumb Code   164  depilogue.o(.text)
    __scatterload                            0x080130d1   Thumb Code    28  init.o(.text)
    __scatterload_rt2                        0x080130d1   Thumb Code     0  init.o(.text)
    __decompress                             0x080130f5   Thumb Code     0  __dczerorl2.o(.text)
    __decompress1                            0x080130f5   Thumb Code    92  __dczerorl2.o(.text)
    __0sprintf$5                             0x08013151   Thumb Code    34  printf5.o(i.__0sprintf$5)
    __1sprintf$5                             0x08013151   Thumb Code     0  printf5.o(i.__0sprintf$5)
    __2sprintf                               0x08013151   Thumb Code     0  printf5.o(i.__0sprintf$5)
    __scatterload_copy                       0x08013179   Thumb Code    14  handlers.o(i.__scatterload_copy)
    __scatterload_null                       0x08013187   Thumb Code     2  handlers.o(i.__scatterload_null)
    __scatterload_zeroinit                   0x08013189   Thumb Code    14  handlers.o(i.__scatterload_zeroinit)
    CAN_baud_table                           0x08013498   Data         360  bsp_can.o(.constdata)
    OSUnMapTbl                               0x08013600   Data         256  os_core.o(.constdata)
    batTransTable                            0x08013898   Data          24  eb_battery.o(.constdata)
    pdoAssign                                0x080138b0   Data         168  eb_framework.o(.constdata)
    transTable                               0x08013958   Data          24  eb_state.o(.constdata)
    od_description                           0x08013b58   Data        2184  gen_objdict.o(.constdata)
    od_assign                                0x080143e0   Data         456  gen_objdict.o(.constdata)
    od_data_variables                        0x08014644   Data         116  gen_objdict.o(.constdata)
    Region$$Table$$Base                      0x080146cc   Number         0  anon$$obj.o(Region$$Table)
    Region$$Table$$Limit                     0x080146ec   Number         0  anon$$obj.o(Region$$Table)
    main_loop_count                          0x20000000   Data           4  main.o(.data)
    sem_CAN1_rec_flag                        0x2000001c   Data           4  task_can1.o(.data)
    i                                        0x20000020   Data           4  task_adc.o(.data)
    Temprature_Table                         0x20000024   Data         120  task_adc.o(.data)
    temp_table_JT103                         0x2000009c   Data          72  task_adc.o(.data)
    f_curr_adc_0                             0x200000e4   Data           4  task_adc.o(.data)
    sem_U4_rec_flag                          0x200000e8   Data           4  task_avchg.o(.data)
    vcuInfo                                  0x200000fc   Data           4  task_main.o(.data)
    gWkSrc                                   0x20000100   Data           1  task_main.o(.data)
    main_task_timer                          0x20000104   Data           4  task_main.o(.data)
    mTsk_rt                                  0x20000108   Data           4  task_main.o(.data)
    fault_flag                               0x2000010c   Data           4  task_syscheck.o(.data)
    sem_vcu_can_rev                          0x20000118   Data           4  task_syscheck.o(.data)
    sem_bmu_can_rev                          0x2000011c   Data           4  task_syscheck.o(.data)
    sem_fault_clr                            0x20000120   Data           4  task_syscheck.o(.data)
    crc15_poly                               0x20000128   Data           2  task_ltc.o(.data)
    pec                                      0x2000013d   Data           1  task_ltc.o(.data)
    pec16                                    0x2000013e   Data           2  task_ltc.o(.data)
    sem_CAN2_rec_flag                        0x20000148   Data           4  task_can2.o(.data)
    sem_CAN2_send_flag                       0x2000014c   Data           4  task_can2.o(.data)
    c2_d                                     0x20000150   Data           8  task_can2.o(.data)
    C1_wait_num                              0x20000158   Data           1  bsp_can.o(.data)
    C2_wait_num                              0x20000159   Data           1  bsp_can.o(.data)
    can1_rec_flag                            0x2000015a   Data           1  bsp_can.o(.data)
    can2_rec_flag                            0x2000015b   Data           1  bsp_can.o(.data)
    CAN2_data                                0x2000015d   Data           8  bsp_can.o(.data)
    dma_trig_cnt                             0x20000168   Data           4  bsp_adc.o(.data)
    ADC_dma_ready_flag                       0x2000016c   Data           1  bsp_adc.o(.data)
    RS232_REC_Flag                           0x20000170   Data           1  bsp_sci.o(.data)
    RS232_rec_counter                        0x20000174   Data           4  bsp_sci.o(.data)
    RS232_send_data_length                   0x20000178   Data           2  bsp_sci.o(.data)
    U4_REC_Flag                              0x2000017a   Data           1  bsp_sci.o(.data)
    U4_rec_counter                           0x2000017c   Data           4  bsp_sci.o(.data)
    U4_send_data_length                      0x20000180   Data           2  bsp_sci.o(.data)
    NVIC_InitStructure                       0x20000182   Data           4  bsp_sci.o(.data)
    RS232_dma_send_flag                      0x20000186   Data           1  dma.o(.data)
    U4_dma_send_flag                         0x20000187   Data           1  dma.o(.data)
    RecvLen                                  0x20000190   Data           2  bsp_wifi.o(.data)
    SystemCoreClock                          0x200001a4   Data           4  system_stm32f4xx.o(.data)
    AHBPrescTable                            0x200001a8   Data          16  system_stm32f4xx.o(.data)
    OSCtxSwCtr                               0x200001b8   Data           4  os_core.o(.data)
    OSEventFreeList                          0x200001bc   Data           4  os_core.o(.data)
    OSFlagFreeList                           0x200001c0   Data           4  os_core.o(.data)
    OSCPUUsage                               0x200001c4   Data           1  os_core.o(.data)
    OSIdleCtrMax                             0x200001c8   Data           4  os_core.o(.data)
    OSIdleCtrRun                             0x200001cc   Data           4  os_core.o(.data)
    OSStatRdy                                0x200001d0   Data           1  os_core.o(.data)
    OSIntNesting                             0x200001d1   Data           1  os_core.o(.data)
    OSLockNesting                            0x200001d2   Data           1  os_core.o(.data)
    OSPrioCur                                0x200001d3   Data           1  os_core.o(.data)
    OSPrioHighRdy                            0x200001d4   Data           1  os_core.o(.data)
    OSRdyGrp                                 0x200001d5   Data           1  os_core.o(.data)
    OSRdyTbl                                 0x200001d6   Data           8  os_core.o(.data)
    OSRunning                                0x200001de   Data           1  os_core.o(.data)
    OSTaskCtr                                0x200001df   Data           1  os_core.o(.data)
    OSIdleCtr                                0x200001e0   Data           4  os_core.o(.data)
    OSTCBCur                                 0x200001e4   Data           4  os_core.o(.data)
    OSTCBFreeList                            0x200001e8   Data           4  os_core.o(.data)
    OSTCBHighRdy                             0x200001ec   Data           4  os_core.o(.data)
    OSTCBList                                0x200001f0   Data           4  os_core.o(.data)
    OSTickStepState                          0x200001f4   Data           1  os_core.o(.data)
    OSMemFreeList                            0x200001f8   Data           4  os_core.o(.data)
    OSQFreeList                              0x200001fc   Data           4  os_core.o(.data)
    OSTime                                   0x20000200   Data           4  os_core.o(.data)
    TimingDelay                              0x20000204   Data           4  systick.o(.data)
    CCR1_Val                                 0x20000208   Data           2  timer.o(.data)
    CCR2_Val                                 0x2000020a   Data           2  timer.o(.data)
    CCR3_Val                                 0x2000020c   Data           2  timer.o(.data)
    CCR4_Val                                 0x2000020e   Data           2  timer.o(.data)
    emtasVendorId                            0x20000380   Data           4  eb_framework.o(.data)
    emtasCANopenVersion                      0x20000384   Data           4  eb_framework.o(.data)
    emtasEbFwVersion                         0x20000388   Data           4  eb_framework.o(.data)
    gSysCfg                                  0x200003c0   Data          68  main.o(.bss)
    Stk_TaskStartUp                          0x20000404   Data        4000  main.o(.bss)
    bmu                                      0x20001448   Data        1240  appbmu.o(.bss)
    Stk_Task_CAN1                            0x20001920   Data        8000  task_can1.o(.bss)
    Stk_Task_CO_EB                           0x20003860   Data        8000  task_can1.o(.bss)
    ad_res                                   0x200057a0   Data          18  task_adc.o(.bss)
    f_adc_value                              0x200057b4   Data          64  task_adc.o(.bss)
    sysInfo                                  0x200057f4   Data         408  task_main.o(.bss)
    Stk_Task_Main                            0x2000598c   Data        8000  task_main.o(.bss)
    bpInfo                                   0x200078cc   Data          84  task_main.o(.bss)
    Stk_Task_LTC                             0x20007920   Data        8000  task_ltc.o(.bss)
    ltcCfg                                   0x20009860   Data          12  task_ltc.o(.bss)
    spi2RevBuf                               0x2000986c   Data         260  task_ltc.o(.bss)
    spi1RevBuf                               0x20009970   Data         260  task_ltc.o(.bss)
    moduleInfo                               0x20009a74   Data         212  task_ltc.o(.bss)
    pec15Table                               0x20009b48   Data         512  task_ltc.o(.bss)
    uiSrc                                    0x20009d48   Data          40  task_ltc.o(.bss)
    Stk_Task_CAN2_Rev                        0x20009d70   Data        1600  task_can2.o(.bss)
    Stk_Task_CAN2_Snd2Buf                    0x2000a3b0   Data        1600  task_can2.o(.bss)
    Stk_Task_CAN_Send                        0x2000a9f0   Data        1600  task_can2.o(.bss)
    CAN1RxMsg                                0x2000b030   Data          20  bsp_can.o(.bss)
    CAN2RxMsg                                0x2000b044   Data          20  bsp_can.o(.bss)
    CAN1TxBuf                                0x2000b058   Data         600  bsp_can.o(.bss)
    CAN2TxBuf                                0x2000b2b0   Data         600  bsp_can.o(.bss)
    ADC_REV_Instant                          0x2000b508   Data          32  bsp_adc.o(.bss)
    ADC_REV_SUM                              0x2000b528   Data          64  bsp_adc.o(.bss)
    RS232_buff                               0x2000b568   Data        1024  bsp_sci.o(.bss)
    U4_buff                                  0x2000b968   Data        1024  bsp_sci.o(.bss)
    RS232_send_data                          0x2000bd68   Data        1024  dma.o(.bss)
    U4_send_data                             0x2000c168   Data        1024  dma.o(.bss)
    RecvBUF                                  0x2000c568   Data         512  bsp_wifi.o(.bss)
    OSEventTbl                               0x2000c768   Data         240  os_core.o(.bss)
    OSFlagTbl                                0x2000c858   Data          80  os_core.o(.bss)
    OSTaskStatStk                            0x2000c8a8   Data         512  os_core.o(.bss)
    OSTaskIdleStk                            0x2000caa8   Data         512  os_core.o(.bss)
    OSTCBPrioTbl                             0x2000cca8   Data         256  os_core.o(.bss)
    OSTCBTbl                                 0x2000cda8   Data        1936  os_core.o(.bss)
    OSMemTbl                                 0x2000d538   Data         120  os_core.o(.bss)
    OSQTbl                                   0x2000d5b0   Data          96  os_core.o(.bss)
    ebBatData                                0x2000de2c   Data         144  eb_battery.o(.bss)
    ebData                                   0x2000debc   Data          68  eb_framework.o(.bss)
    dataReqEbc                               0x2000df00   Data          12  eb_framework.o(.bss)
    dataRespEbc                              0x2000df0c   Data          16  eb_framework.o(.bss)
    reqData                                  0x2000df1c   Data          16  eb_framework.o(.bss)
    __initial_sp                             0x2000e370   Data           0  startup_stm32f4xx.o(STACK)



==============================================================================

Memory Map of the image

  Image Entry point : 0x08000189

  Load Region LR_IROM1 (Base: 0x08000000, Size: 0x00014aac, Max: 0x00080000, ABSOLUTE, COMPRESSED[0x000147c8])

    Execution Region ER_IROM1 (Base: 0x08000000, Size: 0x000146ec, Max: 0x00080000, ABSOLUTE)

    Base Addr    Size         Type   Attr      Idx    E Section Name        Object

    0x08000000   0x00000188   Data   RO         1528    RESET               startup_stm32f4xx.o
    0x08000188   0x00000000   Code   RO         2450  * .ARM.Collect$$$$00000000  mc_w.l(entry.o)
    0x08000188   0x00000004   Code   RO         2738    .ARM.Collect$$$$00000001  mc_w.l(entry2.o)
    0x0800018c   0x00000004   Code   RO         2741    .ARM.Collect$$$$00000004  mc_w.l(entry5.o)
    0x08000190   0x00000000   Code   RO         2743    .ARM.Collect$$$$00000008  mc_w.l(entry7b.o)
    0x08000190   0x00000008   Code   RO         2744    .ARM.Collect$$$$00000009  mc_w.l(entry8.o)
    0x08000198   0x00000004   Code   RO         2739    .ARM.Collect$$$$00002712  mc_w.l(entry2.o)
    0x0800019c   0x00000124   Code   RO            2    .text               main.o
    0x080002c0   0x0000196c   Code   RO          279    .text               appbmu.o
    0x08001c2c   0x00000060   Code   RO          341    .text               task_can1.o
    0x08001c8c   0x000004c0   Code   RO          430    .text               task_adc.o
    0x0800214c   0x0000015c   Code   RO          483    .text               task_eflash.o
    0x080022a8   0x000000e0   Code   RO          502    .text               appconfig.o
    0x08002388   0x000000c8   Code   RO          518    .text               task_main.o
    0x08002450   0x000004b8   Code   RO          596    .text               co_battery.o
    0x08002908   0x00000e18   Code   RO          701    .text               task_ltc.o
    0x08003720   0x000002e8   Code   RO          725    .text               task_can2.o
    0x08003a08   0x00000038   Code   RO          757    .text               bsp_global.o
    0x08003a40   0x0000019c   Code   RO          773    .text               nvic.o
    0x08003bdc   0x00000234   Code   RO          805    .text               bsp_gpio.o
    0x08003e10   0x0000022c   Code   RO          821    .text               bsp_can.o
    0x0800403c   0x00000228   Code   RO          845    .text               bsp_adc.o
    0x08004264   0x0000039c   Code   RO          876    .text               bsp_sci.o
    0x08004600   0x00000254   Code   RO          900    .text               dma.o
    0x08004854   0x0000008c   Code   RO          924    .text               flashdriver.o
    0x080048e0   0x0000087c   Code   RO          942    .text               sst25vf016b.o
    0x0800515c   0x0000002c   Code   RO          962    .text               bsp_wdg.o
    0x08005188   0x00000660   Code   RO          978    .text               bsp_wifi.o
    0x080057e8   0x000000e4   Code   RO         1029    .text               misc.o
    0x080058cc   0x00000474   Code   RO         1045    .text               stm32f4xx_adc.o
    0x08005d40   0x000009f4   Code   RO         1061    .text               stm32f4xx_can.o
    0x08006734   0x000003b0   Code   RO         1205    .text               stm32f4xx_dma.o
    0x08006ae4   0x0000024c   Code   RO         1269    .text               stm32f4xx_gpio.o
    0x08006d30   0x00000040   Code   RO         1349    .text               stm32f4xx_iwdg.o
    0x08006d70   0x00000578   Code   RO         1381    .text               stm32f4xx_rcc.o
    0x080072e8   0x000000a0   Code   RO         1399    .text               stm32f4xx_rng.o
    0x08007388   0x00000400   Code   RO         1447    .text               stm32f4xx_spi.o
    0x08007788   0x00000c70   Code   RO         1479    .text               stm32f4xx_tim.o
    0x080083f8   0x00000422   Code   RO         1495    .text               stm32f4xx_usart.o
    0x0800881a   0x00000002   PAD
    0x0800881c   0x00000024   Code   RO         1529    .text               startup_stm32f4xx.o
    0x08008840   0x0000020c   Code   RO         1534    .text               system_stm32f4xx.o
    0x08008a4c   0x000000c4   Code   RO         1555    .text               os_cpu_a.o
    0x08008b10   0x0000014c   Code   RO         1559    .text               os_cpu_c.o
    0x08008c5c   0x00000cec   Code   RO         1594    .text               os_core.o
    0x08009948   0x000007f8   Code   RO         1618    .text               os_flag.o
    0x0800a140   0x000001d4   Code   RO         1650    .text               os_mem.o
    0x0800a314   0x000005e4   Code   RO         1682    .text               os_q.o
    0x0800a8f8   0x000003a8   Code   RO         1698    .text               os_sem.o
    0x0800aca0   0x0000083c   Code   RO         1714    .text               os_task.o
    0x0800b4dc   0x000001a4   Code   RO         1730    .text               os_time.o
    0x0800b680   0x000000b8   Code   RO         1756    .text               systick.o
    0x0800b738   0x0000018c   Code   RO         1775    .text               timer.o
    0x0800b8c4   0x00000310   Code   RO         1852    .text               co_cobhandler.o
    0x0800bbd4   0x00000268   Code   RO         1877    .text               co_commtask.o
    0x0800be3c   0x000002d0   Code   RO         1937    .text               co_emcy.o
    0x0800c10c   0x00000620   Code   RO         1954    .text               co_errctrl.o
    0x0800c72c   0x00000088   Code   RO         1969    .text               co_event.o
    0x0800c7b4   0x00000804   Code   RO         1992    .text               co_lss.o
    0x0800cfb8   0x00000364   Code   RO         2014    .text               co_nmt.o
    0x0800d31c   0x00001fc4   Code   RO         2057    .text               co_odaccess.o
    0x0800f2e0   0x00000938   Code   RO         2071    .text               co_pdo.o
    0x0800fc18   0x000005b0   Code   RO         2086    .text               co_queue.o
    0x080101c8   0x00000b8c   Code   RO         2116    .text               co_sdoserv.o
    0x08010d54   0x0000034c   Code   RO         2135    .text               co_sleep.o
    0x080110a0   0x00000052   Code   RO         2150    .text               co_stackinit.o
    0x080110f2   0x00000002   PAD
    0x080110f4   0x00000064   Code   RO         2171    .text               co_store.o
    0x08011158   0x00000380   Code   RO         2185    .text               co_sync.o
    0x080114d8   0x000001bc   Code   RO         2206    .text               co_timer.o
    0x08011694   0x0000019c   Code   RO         2227    .text               codrv_can_generic.o
    0x08011830   0x0000001e   Code   RO         2265    .text               codrv_cpu_generic.o
    0x0801184e   0x00000002   PAD
    0x08011850   0x000000e0   Code   RO         2280    .text               codrv_error.o
    0x08011930   0x000002b4   Code   RO         2310    .text               eb_battery.o
    0x08011be4   0x00000088   Code   RO         2347    .text               eb_eeprom.o
    0x08011c6c   0x000006e4   Code   RO         2361    .text               eb_framework.o
    0x08012350   0x00000454   Code   RO         2387    .text               eb_indication.o
    0x080127a4   0x00000374   Code   RO         2401    .text               eb_state.o
    0x08012b18   0x0000012c   Code   RO         2418    .text               gen_objdict.o
    0x08012c44   0x00000038   Code   RO         2438    .text               usr_ind.o
    0x08012c7c   0x00000062   Code   RO         2453    .text               mc_w.l(uldiv.o)
    0x08012cde   0x00000024   Code   RO         2455    .text               mc_w.l(memcpya.o)
    0x08012d02   0x00000026   Code   RO         2457    .text               mc_w.l(memseta.o)
    0x08012d28   0x00000010   Code   RO         2461    .text               mc_w.l(strlen.o)
    0x08012d38   0x0000001e   Code   RO         2465    .text               mc_w.l(strncmp.o)
    0x08012d56   0x000000e0   Code   RO         2730    .text               mf_w.l(dmul.o)
    0x08012e36   0x000000de   Code   RO         2732    .text               mf_w.l(ddiv.o)
    0x08012f14   0x0000001a   Code   RO         2734    .text               mf_w.l(dfltui.o)
    0x08012f2e   0x00000038   Code   RO         2736    .text               mf_w.l(d2f.o)
    0x08012f66   0x0000001e   Code   RO         2750    .text               mc_w.l(llshl.o)
    0x08012f84   0x00000020   Code   RO         2752    .text               mc_w.l(llushr.o)
    0x08012fa4   0x00000000   Code   RO         2754    .text               mc_w.l(iusefp.o)
    0x08012fa4   0x0000006c   Code   RO         2755    .text               mf_w.l(fepilogue.o)
    0x08013010   0x000000be   Code   RO         2757    .text               mf_w.l(depilogue.o)
    0x080130ce   0x00000002   PAD
    0x080130d0   0x00000024   Code   RO         2765    .text               mc_w.l(init.o)
    0x080130f4   0x0000005c   Code   RO         2779    .text               mc_w.l(__dczerorl2.o)
    0x08013150   0x00000028   Code   RO         2604    i.__0sprintf$5      mc_w.l(printf5.o)
    0x08013178   0x0000000e   Code   RO         2773    i.__scatterload_copy  mc_w.l(handlers.o)
    0x08013186   0x00000002   Code   RO         2774    i.__scatterload_null  mc_w.l(handlers.o)
    0x08013188   0x0000000e   Code   RO         2775    i.__scatterload_zeroinit  mc_w.l(handlers.o)
    0x08013196   0x00000002   PAD
    0x08013198   0x000002d0   Code   RO         2609    i._printf_core      mc_w.l(printf5.o)
    0x08013468   0x0000000a   Code   RO         2611    i._sputc            mc_w.l(printf5.o)
    0x08013472   0x00000002   PAD
    0x08013474   0x00000016   Data   RO          281    .constdata          appbmu.o
    0x0801348a   0x00000002   PAD
    0x0801348c   0x0000000a   Data   RO          520    .constdata          task_main.o
    0x08013496   0x00000002   PAD
    0x08013498   0x00000168   Data   RO          823    .constdata          bsp_can.o
    0x08013600   0x00000100   Data   RO         1596    .constdata          os_core.o
    0x08013700   0x00000040   Data   RO         1854    .constdata          co_cobhandler.o
    0x08013740   0x00000024   Data   RO         1878    .constdata          co_commtask.o
    0x08013764   0x00000014   Data   RO         1994    .constdata          co_lss.o
    0x08013778   0x000000d0   Data   RO         2118    .constdata          co_sdoserv.o
    0x08013848   0x00000050   Data   RO         2228    .constdata          codrv_can_generic.o
    0x08013898   0x00000018   Data   RO         2312    .constdata          eb_battery.o
    0x080138b0   0x000000a8   Data   RO         2363    .constdata          eb_framework.o
    0x08013958   0x00000018   Data   RO         2403    .constdata          eb_state.o
    0x08013970   0x00000d5c   Data   RO         2420    .constdata          gen_objdict.o
    0x080146cc   0x00000020   Data   RO         2771    Region$$Table       anon$$obj.o


    Execution Region RW_IRAM2 (Base: 0x10000000, Size: 0x00000000, Max: 0x00010000, ABSOLUTE)

    **** No section assigned to this execution region ****


    Execution Region RW_IRAM1 (Base: 0x20000000, Size: 0x0000e370, Max: 0x00020000, ABSOLUTE, COMPRESSED[0x000000dc])

    Base Addr    Size         Type   Attr      Idx    E Section Name        Object

    0x20000000   0x00000004   Data   RW            4    .data               main.o
    0x20000004   0x00000003   Data   RW          282    .data               appbmu.o
    0x20000007   0x00000001   PAD
    0x20000008   0x00000018   Data   RW          343    .data               task_can1.o
    0x20000020   0x000000c8   Data   RW          432    .data               task_adc.o
    0x200000e8   0x00000004   Data   RW          461    .data               task_avchg.o
    0x200000ec   0x00000020   Data   RW          521    .data               task_main.o
    0x2000010c   0x00000018   Data   RW          548    .data               task_syscheck.o
    0x20000124   0x00000004   PAD
    0x20000128   0x0000001c   Data   RW          703    .data               task_ltc.o
    0x20000144   0x00000014   Data   RW          727    .data               task_can2.o
    0x20000158   0x0000000d   Data   RW          824    .data               bsp_can.o
    0x20000165   0x00000003   PAD
    0x20000168   0x00000005   Data   RW          847    .data               bsp_adc.o
    0x2000016d   0x00000003   PAD
    0x20000170   0x00000016   Data   RW          878    .data               bsp_sci.o
    0x20000186   0x00000002   Data   RW          902    .data               dma.o
    0x20000188   0x00000008   Data   RW          925    .data               flashdriver.o
    0x20000190   0x00000002   Data   RW          980    .data               bsp_wifi.o
    0x20000192   0x00000010   Data   RW         1382    .data               stm32f4xx_rcc.o
    0x200001a2   0x00000002   PAD
    0x200001a4   0x00000014   Data   RW         1535    .data               system_stm32f4xx.o
    0x200001b8   0x0000004c   Data   RW         1597    .data               os_core.o
    0x20000204   0x00000004   Data   RW         1757    .data               systick.o
    0x20000208   0x00000008   Data   RW         1776    .data               timer.o
    0x20000210   0x00000002   Data   RW         1855    .data               co_cobhandler.o
    0x20000212   0x00000002   PAD
    0x20000214   0x00000010   Data   RW         1879    .data               co_commtask.o
    0x20000224   0x00000010   Data   RW         1938    .data               co_emcy.o
    0x20000234   0x0000000c   Data   RW         1956    .data               co_errctrl.o
    0x20000240   0x00000004   Data   RW         1970    .data               co_event.o
    0x20000244   0x00000018   Data   RW         1995    .data               co_lss.o
    0x2000025c   0x00000010   Data   RW         2015    .data               co_nmt.o
    0x2000026c   0x00000084   Data   RW         2058    .data               co_odaccess.o
    0x200002f0   0x00000002   Data   RW         2073    .data               co_pdo.o
    0x200002f2   0x00000002   PAD
    0x200002f4   0x00000012   Data   RW         2088    .data               co_queue.o
    0x20000306   0x00000002   PAD
    0x20000308   0x00000010   Data   RW         2119    .data               co_sdoserv.o
    0x20000318   0x00000012   Data   RW         2137    .data               co_sleep.o
    0x2000032a   0x00000002   PAD
    0x2000032c   0x00000008   Data   RW         2172    .data               co_store.o
    0x20000334   0x00000020   Data   RW         2187    .data               co_sync.o
    0x20000354   0x0000000c   Data   RW         2207    .data               co_timer.o
    0x20000360   0x00000008   Data   RW         2229    .data               codrv_can_generic.o
    0x20000368   0x00000006   Data   RW         2281    .data               codrv_error.o
    0x2000036e   0x00000002   PAD
    0x20000370   0x00000008   Data   RW         2313    .data               eb_battery.o
    0x20000378   0x00000008   Data   RW         2348    .data               eb_eeprom.o
    0x20000380   0x0000000c   Data   RW         2364    .data               eb_framework.o
    0x2000038c   0x00000024   Data   RW         2388    .data               eb_indication.o
    0x200003b0   0x00000008   Data   RW         2404    .data               eb_state.o
    0x200003b8   0x00000006   Data   RW         2421    .data               gen_objdict.o
    0x200003be   0x00000002   PAD
    0x200003c0   0x00000fe4   Zero   RW            3    .bss                main.o
    0x200013a4   0x00000004   PAD
    0x200013a8   0x00000578   Zero   RW          280    .bss                appbmu.o
    0x20001920   0x00003e80   Zero   RW          342    .bss                task_can1.o
    0x200057a0   0x00000054   Zero   RW          431    .bss                task_adc.o
    0x200057f4   0x0000212c   Zero   RW          519    .bss                task_main.o
    0x20007920   0x00002450   Zero   RW          702    .bss                task_ltc.o
    0x20009d70   0x000012c0   Zero   RW          726    .bss                task_can2.o
    0x2000b030   0x000004d8   Zero   RW          822    .bss                bsp_can.o
    0x2000b508   0x00000060   Zero   RW          846    .bss                bsp_adc.o
    0x2000b568   0x00000800   Zero   RW          877    .bss                bsp_sci.o
    0x2000bd68   0x00000800   Zero   RW          901    .bss                dma.o
    0x2000c568   0x00000200   Zero   RW          979    .bss                bsp_wifi.o
    0x2000c768   0x00000ea8   Zero   RW         1595    .bss                os_core.o
    0x2000d610   0x00000374   Zero   RW         1853    .bss                co_cobhandler.o
    0x2000d984   0x00000068   Zero   RW         1955    .bss                co_errctrl.o
    0x2000d9ec   0x00000040   Zero   RW         1993    .bss                co_lss.o
    0x2000da2c   0x0000009c   Zero   RW         2072    .bss                co_pdo.o
    0x2000dac8   0x000002f8   Zero   RW         2087    .bss                co_queue.o
    0x2000ddc0   0x00000024   Zero   RW         2117    .bss                co_sdoserv.o
    0x2000dde4   0x00000030   Zero   RW         2136    .bss                co_sleep.o
    0x2000de14   0x00000018   Zero   RW         2186    .bss                co_sync.o
    0x2000de2c   0x00000090   Zero   RW         2311    .bss                eb_battery.o
    0x2000debc   0x00000070   Zero   RW         2362    .bss                eb_framework.o
    0x2000df2c   0x00000024   Zero   RW         2402    .bss                eb_state.o
    0x2000df50   0x00000020   Zero   RW         2419    .bss                gen_objdict.o
    0x2000df70   0x00000400   Zero   RW         1526    STACK               startup_stm32f4xx.o


==============================================================================

Image component sizes


      Code (inc. data)   RO Data    RW Data    ZI Data      Debug   Object Name

      6508        106         22          3       1400      19450   appbmu.o
       224         26          0          0          0        886   appconfig.o
       552         44          0          5         96      19881   bsp_adc.o
       556         40        360         13       1240       2760   bsp_can.o
        56          6          0          0          0        463   bsp_global.o
       564         30          0          0          0       1209   bsp_gpio.o
       924         54          0         22       2048       3737   bsp_sci.o
        44          0          0          0          0        552   bsp_wdg.o
      1632        360          0          2        512       4084   bsp_wifi.o
      1208        112          0          0          0      22138   co_battery.o
       784         14         64          2        884       6670   co_cobhandler.o
       616         46         36         16          0       5772   co_commtask.o
       720         22          0         16          0       4425   co_emcy.o
      1568         62          0         12        104       7568   co_errctrl.o
       136          4          0          4          0       1976   co_event.o
      2052        130         20         24         64       7054   co_lss.o
       868         28          0         16          0       4886   co_nmt.o
      8132        708          0        132          0      23961   co_odaccess.o
      2360         32          0          2        156      11161   co_pdo.o
      1456         72          0         18        760       7179   co_queue.o
      2956         74        208         16         36      13041   co_sdoserv.o
       844         52          0         18         48       5304   co_sleep.o
        82          0          0          0          0       1324   co_stackinit.o
       100          8          0          8          0       1608   co_store.o
       896         50          0         32         24       5026   co_sync.o
       444         12          0         12          0       3507   co_timer.o
       412         16         80          8          0       5015   codrv_can_generic.o
        30          0          0          0          0       1427   codrv_cpu_generic.o
       224          4          0          6          0       1779   codrv_error.o
       596         36          0          2       2048       2128   dma.o
       692         26         24          8        144       5053   eb_battery.o
       136         10          0          8          0       1960   eb_eeprom.o
      1764         36        168         12        112      16075   eb_framework.o
      1108         70          0         36          0       7054   eb_indication.o
       884         36         24          8         36       4409   eb_state.o
       140          8          0          8          0       2226   flashdriver.o
       300         40       3420          6         32       2382   gen_objdict.o
       292         66          0          4       4068     347729   main.o
       228         22          0          0          0       1761   misc.o
       412          0          0          0          0        741   nvic.o
      3308        276        256         76       3752      19891   os_core.o
       196         32          0          0          0        272   os_cpu_a.o
       332         14          0          0          0       3360   os_cpu_c.o
      2040         42          0          0          0       7116   os_flag.o
       468         18          0          0          0       3176   os_mem.o
      1508         34          0          0          0       5681   os_q.o
       936         20          0          0          0       3998   os_sem.o
      2108         76          0          0          0       8029   os_task.o
       420         26          0          0          0       1822   os_time.o
      2172         48          0          0          0       4789   sst25vf016b.o
        36          8        392          0       1024        796   startup_stm32f4xx.o
      1140         30          0          0          0      10933   stm32f4xx_adc.o
      2548         38          0          0          0       8088   stm32f4xx_can.o
       944         32          0          0          0       6337   stm32f4xx_dma.o
       588         36          0          0          0       4041   stm32f4xx_gpio.o
        64          6          0          0          0       1313   stm32f4xx_iwdg.o
      1400         46          0         16          0      10935   stm32f4xx_rcc.o
       160          4          0          0          0       1780   stm32f4xx_rng.o
      1024         20          0          0          0       6813   stm32f4xx_spi.o
      3184         64          0          0          0      23028   stm32f4xx_tim.o
      1058         24          0          0          0       7816   stm32f4xx_usart.o
       524         44          0         20          0       1835   system_stm32f4xx.o
       184         18          0          4          0       2172   systick.o
      1216         76          0        200         84       3985   task_adc.o
         0          0          0          4          0        632   task_avchg.o
        96          6          0         24      16000      11832   task_can1.o
       744         66          0         20       4800      21991   task_can2.o
       348         20          0          0          0       1637   task_eflash.o
      3608        208          0         28       9296       9108   task_ltc.o
       200         38         10         32       8492       6501   task_main.o
         0          0          0         24          0       1821   task_syscheck.o
       396         28          0          8          0       1370   timer.o
        56          0          0          0          0       3093   usr_ind.o

    ----------------------------------------------------------------------
     76512       3860       5120        960      57264     791352   Object Totals
         0          0         32          0          0          0   (incl. Generated)
         6          0          4         25          4          0   (incl. Padding)

    ----------------------------------------------------------------------

      Code (inc. data)   RO Data    RW Data    ZI Data      Debug   Library Member Name

        92          0          0          0          0          0   __dczerorl2.o
         0          0          0          0          0          0   entry.o
         8          4          0          0          0          0   entry2.o
         4          0          0          0          0          0   entry5.o
         0          0          0          0          0          0   entry7b.o
         8          4          0          0          0          0   entry8.o
        30          0          0          0          0          0   handlers.o
        36          8          0          0          0         68   init.o
         0          0          0          0          0          0   iusefp.o
        30          0          0          0          0         68   llshl.o
        32          0          0          0          0         68   llushr.o
        36          0          0          0          0         68   memcpya.o
        38          0          0          0          0        108   memseta.o
       770         50          0          0          0        252   printf5.o
        16          0          0          0          0         68   strlen.o
        30          0          0          0          0         80   strncmp.o
        98          0          0          0          0         92   uldiv.o
        56          0          0          0          0         88   d2f.o
       222          0          0          0          0        100   ddiv.o
       190          0          0          0          0        176   depilogue.o
        26          0          0          0          0         76   dfltui.o
       224          0          0          0          0         96   dmul.o
       108          0          0          0          0        168   fepilogue.o

    ----------------------------------------------------------------------
      2060         66          0          0          0       1576   Library Totals
         6          0          0          0          0          0   (incl. Padding)

    ----------------------------------------------------------------------

      Code (inc. data)   RO Data    RW Data    ZI Data      Debug   Library Name

      1228         66          0          0          0        872   mc_w.l
       826          0          0          0          0        704   mf_w.l

    ----------------------------------------------------------------------
      2060         66          0          0          0       1576   Library Totals

    ----------------------------------------------------------------------

==============================================================================


      Code (inc. data)   RO Data    RW Data    ZI Data      Debug   

     78572       3926       5120        960      57264     775200   Grand Totals
     78572       3926       5120        220      57264     775200   ELF Image Totals (compressed)
     78572       3926       5120        220          0          0   ROM Totals

==============================================================================

    Total RO  Size (Code + RO Data)                83692 (  81.73kB)
    Total RW  Size (RW Data + ZI Data)             58224 (  56.86kB)
    Total ROM Size (Code + RO Data + RW Data)      83912 (  81.95kB)

==============================================================================

